(dp0
(I3
I20
tp1
(I0
I0
tp2
s(I57
I-16
tp3
(I0
F19402.0
tp4
s(I63
I-27
tp5
(I0
I0
tp6
s(I18
I-29
tp7
g6
s(I41
I13
tp8
g6
s(I40
I22
tp9
g6
s(I57
I15
tp10
(F76511.0
F-60741.0
tp11
s(I25
I28
tp12
g2
s(I31
I6
tp13
g6
s(I6
I-34
tp14
g6
s(I23
I-44
tp15
(I0
F-70000.0
tp16
s(I42
I-8
tp17
(I0
F82547.0
tp18
s(I29
I44
tp19
g2
s(I20
I-23
tp20
g6
s(I25
I-20
tp21
g6
s(I16
I47
tp22
(I0
I0
tp23
s(I17
I-6
tp24
g6
s(I36
I34
tp25
g2
s(I30
I-25
tp26
(I0
F130877.0
tp27
s(I44
I-18
tp28
g6
s(I61
I38
tp29
g23
s(I44
I34
tp30
(I0
I0
tp31
s(I9
I0
tp32
g6
s(I24
I-35
tp33
g6
s(I54
I-20
tp34
g6
s(I15
I30
tp35
(I0
F0.0
tp36
s(I15
I-43
tp37
(F0.0
F-70000.0
tp38
s(I51
I-5
tp39
g6
s(I35
I-27
tp40
g6
s(I48
I-10
tp41
g6
s(I46
I-21
tp42
g6
s(I62
I31
tp43
g6
s(I32
I-18
tp44
g2
s(I39
I-4
tp45
g6
s(I-3
I9
tp46
g6
s(I52
I17
tp47
g6
s(I14
I-10
tp48
g6
s(I57
I-26
tp49
(I0
F0.0
tp50
s(I3
I2
tp51
g6
s(I11
I-15
tp52
g6
s(I35
I-26
tp53
g6
s(I8
I-20
tp54
(F-65345.0
F-63462.0
tp55
s(I60
I-22
tp56
(I0
F-31633.0
tp57
s(I27
I5
tp58
(I0
F128396.0
tp59
s(I50
I27
tp60
g6
s(I57
I-7
tp61
(I0
F85537.0
tp62
s(I43
I3
tp63
g6
s(I49
I24
tp64
(I0
F108173.0
tp65
s(I29
I-25
tp66
g2
s(I32
I-27
tp67
g6
s(I21
I37
tp68
g2
s(I10
I-38
tp69
g6
s(I45
I-2
tp70
(I0
F95883.0
tp71
s(I24
I29
tp72
g2
s(I7
I22
tp73
g2
s(I23
I-19
tp74
(F72858.0
F-3164.0
tp75
s(I42
I-29
tp76
g6
s(I29
I37
tp77
g2
s(I20
I-16
tp78
g6
s(I33
I34
tp79
g2
s(I56
I25
tp80
g6
s(I17
I-13
tp81
g6
s(I36
I41
tp82
g2
s(I30
I-18
tp83
(I0
F87539.0
tp84
s(I41
I34
tp85
g2
s(I22
I12
tp86
g31
s(I26
I-6
tp87
(I0
I0
tp88
s(I44
I25
tp89
g6
s(I9
I9
tp90
g88
s(I5
I-8
tp91
g6
s(I12
I50
tp92
g2
s(I19
I-39
tp93
(I0
F0.0
tp94
s(I34
I3
tp95
(I0
F73495.0
tp96
s(I59
I9
tp97
g6
s(I48
I-19
tp98
g6
s(I62
I6
tp99
g6
s(I39
I-11
tp100
g6
s(I13
I13
tp101
g88
s(I36
I-24
tp102
g6
s(I49
I-1
tp103
(I0
F63564.0
tp104
s(I14
I-7
tp105
g6
s(I50
I-37
tp106
g6
s(I3
I11
tp107
g6
s(I11
I-10
tp108
g6
s(I32
I-1
tp109
g6
s(I23
I-33
tp110
(F-2282.0
F-34300.0
tp111
s(I29
I-1
tp112
g6
s(I28
I1
tp113
(I0
I0
tp114
s(I50
I18
tp115
g88
s(I35
I-15
tp116
g6
s(I40
I4
tp117
g6
s(I21
I46
tp118
g2
s(I26
I31
tp119
g2
s(I45
I-9
tp120
(F79924.0
F-91000.0
tp121
s(I23
I-22
tp122
(I0
F1783.0
tp123
s(I42
I-22
tp124
(I0
F0.0
tp125
s(I58
I19
tp126
g6
s(I56
I-4
tp127
g6
s(I56
I-27
tp128
g6
s(I17
I-12
tp129
g6
s(I54
I46
tp130
g114
s(I58
I37
tp131
g6
s(I47
I-35
tp132
g6
s(I22
I7
tp133
g88
s(I27
I-34
tp134
(I0
F-1326.0
tp135
s(I44
I16
tp136
g6
s(I5
I-31
tp137
g6
s(I47
I5
tp138
g6
s(I12
I41
tp139
(I0
I0
tp140
s(I19
I-34
tp141
(F-4560.0
F-4035.0
tp142
s(I54
I-1
tp143
g6
s(I15
I-37
tp144
(I0
F-8235.0
tp145
s(I29
I-24
tp146
g6
s(I48
I-28
tp147
g88
s(I64
I35
tp148
g31
s(I62
I9
tp149
g6
s(I37
I-5
tp150
g6
s(I10
I19
tp151
g2
s(I39
I-14
tp152
g6
s(I29
I38
tp153
g2
s(I13
I6
tp154
g2
s(I25
I2
tp155
g114
s(I0
I5
tp156
(F85713.0
F-70000.0
tp157
s(I47
I-22
tp158
g6
s(I38
I22
tp159
(I0
F112141.0
tp160
s(I11
I-17
tp161
g6
s(I25
I3
tp162
g6
s(I60
I-8
tp163
(F90956.0
F-43879.0
tp164
s(I50
I13
tp165
g6
s(I63
I21
tp166
g6
s(I53
I0
tp167
(I0
F98356.0
tp168
s(I13
I-39
tp169
g6
s(I40
I11
tp170
g6
s(I45
I-16
tp171
(I0
F82397.0
tp172
s(I26
I34
tp173
g2
s(I7
I4
tp174
g6
s(I23
I-29
tp175
(I0
F-363.0
tp176
s(I46
I33
tp177
(I0
I0
tp178
s(I43
I48
tp179
g88
s(I34
I8
tp180
(I0
F53622.0
tp181
s(I17
I-19
tp182
g6
s(I54
I33
tp183
g6
s(I19
I1
tp184
(I0
F72309.0
tp185
s(I58
I44
tp186
g2
s(I41
I44
tp187
g2
s(I44
I15
tp188
g6
s(I5
I-22
tp189
g6
s(I47
I18
tp190
g6
s(I41
I-12
tp191
g6
s(I12
I32
tp192
(I0
F0.0
tp193
s(I19
I-25
tp194
(F-8823.0
F-8984.0
tp195
s(I34
I21
tp196
(I0
F0.0
tp197
s(I17
I43
tp198
g2
s(I37
I13
tp199
g2
s(I29
I-31
tp200
g6
s(I53
I15
tp201
(F-2967.0
F-23877.0
tp202
s(I62
I48
tp203
g23
s(I45
I40
tp204
(F-16727.0
F-49000.0
tp205
s(I10
I26
tp206
g2
s(I4
I-11
tp207
(F-99190.0
F-99433.0
tp208
s(I39
I-21
tp209
g6
s(I-3
I11
tp210
g6
s(I1
I-1
tp211
g6
s(I43
I18
tp212
g6
s(I31
I-2
tp213
g6
s(I50
I39
tp214
g31
s(I38
I9
tp215
g6
s(I11
I-28
tp216
g6
s(I63
I-14
tp217
g6
s(I24
I14
tp218
g31
s(I25
I-27
tp219
g6
s(I60
I-9
tp220
(F97693.0
F-70000.0
tp221
s(I40
I12
tp222
g6
s(I50
I4
tp223
g6
s(I16
I-14
tp224
g6
s(I53
I9
tp225
(I0
F94002.0
tp226
s(I12
I-16
tp227
(F-43216.0
F-82585.0
tp228
s(I51
I-34
tp229
g178
s(I21
I48
tp230
g23
s(I4
I24
tp231
(F-91000.0
F-91000.0
tp232
s(I10
I-9
tp233
g6
s(I26
I-21
tp234
g6
s(I26
I45
tp235
g2
s(I23
I-8
tp236
(F76697.0
F-70000.0
tp237
s(I46
I40
tp238
g2
s(I29
I48
tp239
g2
s(I48
I37
tp240
g88
s(I56
I-13
tp241
g6
s(I17
I-26
tp242
g6
s(I19
I6
tp243
(I0
F16402.0
tp244
s(I59
I23
tp245
g31
s(I41
I21
tp246
g6
s(I22
I17
tp247
g2
s(I29
I-40
tp248
g6
s(I44
I6
tp249
g6
s(I22
I-45
tp250
g6
s(I41
I-3
tp251
g6
s(I30
I49
tp252
(I0
F0.0
tp253
s(I16
I48
tp254
g23
s(I19
I-20
tp255
(F-41863.0
F-69586.0
tp256
s(I16
I-41
tp257
g6
s(I17
I44
tp258
g2
s(I16
I-7
tp259
g114
s(I37
I33
tp260
g2
s(I46
I25
tp261
g6
s(I55
I9
tp262
g6
s(I29
I-6
tp263
g6
s(I48
I9
tp264
g6
s(I45
I33
tp265
(I0
F86687.0
tp266
s(I10
I5
tp267
g178
s(I4
I-4
tp268
(F-99757.0
F-99757.0
tp269
s(I49
I38
tp270
(F-11620.0
F-33611.0
tp271
s(I-2
I9
tp272
g6
s(I28
I22
tp273
g2
s(I35
I23
tp274
g88
s(I23
I-21
tp275
(F-4312.0
F-2199.0
tp276
s(I38
I0
tp277
(I0
F110448.0
tp278
s(I26
I12
tp279
g178
s(I48
I-37
tp280
g178
s(I25
I13
tp281
g88
s(I42
I14
tp282
(I0
F33261.0
tp283
s(I25
I-18
tp284
g6
s(I30
I-12
tp285
(I0
F92457.0
tp286
s(I38
I-5
tp287
(I0
F27408.0
tp288
s(I16
I21
tp289
g2
s(I14
I41
tp290
g2
s(I53
I18
tp291
(I0
F84902.0
tp292
s(I49
I-32
tp293
g114
s(I48
I17
tp294
g6
s(I4
I7
tp295
(I0
F10136.0
tp296
s(I10
I-1
tp297
g6
s(I45
I-30
tp298
g6
s(I26
I52
tp299
g2
s(I23
I-15
tp300
(F112843.0
F-2571.0
tp301
s(I46
I51
tp302
g140
s(I29
I9
tp303
g6
s(I51
I36
tp304
g88
s(I16
I2
tp305
g6
s(I17
I-33
tp306
g6
s(I54
I51
tp307
g2
s(I47
I-24
tp308
g6
s(I22
I40
tp309
g2
s(I5
I32
tp310
g2
s(I9
I-33
tp311
g6
s(I44
I-3
tp312
g6
s(I9
I37
tp313
g2
s(I5
I-36
tp314
g114
s(I22
I-22
tp315
g6
s(I47
I16
tp316
g6
s(I19
I-11
tp317
(I0
F108592.0
tp318
s(I34
I39
tp319
(F2391.0
F-50263.0
tp320
s(I17
I37
tp321
g2
s(I56
I8
tp322
g6
s(I51
I-36
tp323
g6
s(I31
I5
tp324
g6
s(I29
I-13
tp325
g6
s(I42
I39
tp326
(I0
F-70000.0
tp327
s(I23
I11
tp328
(I0
F86687.0
tp329
s(I45
I51
tp330
(F-30000.0
F-51000.0
tp331
s(I62
I34
tp332
g6
s(I45
I26
tp333
(I0
F101262.0
tp334
s(I10
I12
tp335
g31
s(I4
I-5
tp336
(F-99190.0
F-99757.0
tp337
s(I13
I49
tp338
g2
s(I53
I-22
tp339
g6
s(I14
I-43
tp340
g6
s(I28
I10
tp341
g6
s(I7
I42
tp342
g23
s(I28
I-20
tp343
g6
s(I42
I52
tp344
g23
s(I25
I-9
tp345
g6
s(I7
I49
tp346
g140
s(I38
I-14
tp347
(I0
F57767.0
tp348
s(I14
I48
tp349
g23
s(I35
I-19
tp350
g6
s(I49
I-34
tp351
g6
s(I57
I16
tp352
(I0
F2162.0
tp353
s(I10
I-7
tp354
g6
s(I45
I-37
tp355
(I0
F-91000.0
tp356
s(I47
I13
tp357
g6
s(I59
I-28
tp358
g6
s(I63
I3
tp359
g6
s(I54
I10
tp360
g6
s(I19
I20
tp361
(I0
F67479.0
tp362
s(I51
I-22
tp363
g6
s(I47
I-15
tp364
g6
s(I22
I35
tp365
g23
s(I44
I-12
tp366
g6
s(I9
I46
tp367
g140
s(I22
I-19
tp368
g6
s(I47
I25
tp369
g6
s(I30
I35
tp370
(F0.0
F-2664.0
tp371
s(I19
I-6
tp372
(I0
F83477.0
tp373
s(I54
I-10
tp374
g6
s(I56
I15
tp375
g6
s(I55
I41
tp376
g178
s(I64
I-7
tp377
(F117324.0
F-70000.0
tp378
s(I59
I42
tp379
g2
s(I42
I46
tp380
(F0.0
F-70000.0
tp381
s(I23
I0
tp382
(I0
F163831.0
tp383
s(I62
I37
tp384
g6
s(I45
I19
tp385
(F-25895.0
F-75409.0
tp386
s(I31
I13
tp387
g6
s(I4
I-30
tp388
(F-99757.0
F-99757.0
tp389
s(I40
I-16
tp390
g6
s(I53
I-13
tp391
(I0
F0.0
tp392
s(I14
I-36
tp393
g6
s(I50
I-16
tp394
g6
s(I50
I-10
tp395
g6
s(I60
I11
tp396
(F7075.0
F-1628.0
tp397
s(I63
I-23
tp398
g6
s(I63
I14
tp399
g6
s(I11
I28
tp400
g2
s(I61
I-4
tp401
g6
s(I38
I-11
tp402
(I0
F69940.0
tp403
s(I45
I-1
tp404
(I0
F42765.0
tp405
s(I1
I6
tp406
g6
s(I13
I-3
tp407
g6
s(I39
I17
tp408
g6
s(I27
I-16
tp409
(I0
F90105.0
tp410
s(I10
I-32
tp411
g2
s(I62
I-14
tp412
g6
s(I59
I-3
tp413
g6
s(I51
I50
tp414
g2
s(I56
I32
tp415
g178
s(I59
I-29
tp416
g88
s(I49
I-36
tp417
g178
s(I54
I13
tp418
g6
s(I36
I-20
tp419
g6
s(I12
I-38
tp420
g6
s(I47
I-1
tp421
g6
s(I44
I-13
tp422
g6
s(I27
I45
tp423
g2
s(I22
I-28
tp424
g6
s(I47
I38
tp425
g114
s(I30
I42
tp426
(F-15559.0
F-70000.0
tp427
s(I36
I-14
tp428
g6
s(I16
I-18
tp429
g6
s(I55
I38
tp430
g31
s(I20
I4
tp431
g6
s(I59
I35
tp432
g6
s(I42
I41
tp433
(F-17915.0
F-25853.0
tp434
s(I23
I25
tp435
(I0
F34985.0
tp436
s(I7
I-12
tp437
g6
s(I62
I44
tp438
g2
s(I45
I12
tp439
(I0
F102860.0
tp440
s(I4
I-23
tp441
g2
s(I21
I-43
tp442
g6
s(I40
I-9
tp443
g6
s(I16
I38
tp444
g140
s(I53
I-4
tp445
(I0
F132390.0
tp446
s(I18
I46
tp447
g2
s(I50
I-15
tp448
g6
s(I11
I-21
tp449
g6
s(I60
I2
tp450
(F139497.0
F-60582.0
tp451
s(I64
I32
tp452
(F76867.0
F-91000.0
tp453
s(I29
I0
tp454
g6
s(I3
I-16
tp455
g6
s(I38
I-20
tp456
(I0
F267.0
tp457
s(I14
I2
tp458
g6
s(I27
I-30
tp459
(F48511.0
F-1134.0
tp460
s(I13
I-10
tp461
g6
s(I39
I14
tp462
g6
s(I35
I17
tp463
g6
s(I10
I-21
tp464
g6
s(I26
I1
tp465
g6
s(I24
I-26
tp466
g6
s(I59
I-14
tp467
g6
s(I58
I26
tp468
g88
s(I54
I4
tp469
g6
s(I19
I34
tp470
(I0
F0.0
tp471
s(I6
I2
tp472
g6
s(I41
I-36
tp473
g6
s(I31
I51
tp474
g140
s(I9
I-14
tp475
g6
s(I44
I-22
tp476
g6
s(I27
I34
tp477
(F0.0
F-70000.0
tp478
s(I41
I-39
tp479
g6
s(I3
I-14
tp480
g6
s(I34
I-20
tp481
(I0
F0.0
tp482
s(I17
I8
tp483
g114
s(I56
I29
tp484
g88
s(I33
I-39
tp485
g6
s(I20
I3
tp486
g6
s(I29
I-34
tp487
g6
s(I46
I-28
tp488
g6
s(I23
I22
tp489
(I0
F14813.0
tp490
s(I7
I-19
tp491
g6
s(I45
I5
tp492
(I0
F72144.0
tp493
s(I21
I-34
tp494
g6
s(I40
I-1
tp495
g6
s(I25
I11
tp496
g178
s(I35
I51
tp497
g2
s(I18
I41
tp498
g2
s(I47
I-13
tp499
g6
s(I57
I2
tp500
(I0
F91406.0
tp501
s(I50
I-24
tp502
g6
s(I57
I7
tp503
(I0
F79799.0
tp504
s(I28
I-7
tp505
g6
s(I43
I51
tp506
g23
s(I50
I-25
tp507
g6
s(I11
I10
tp508
g88
s(I-3
I7
tp509
g6
s(I38
I-25
tp510
g6
s(I63
I18
tp511
g6
s(I14
I5
tp512
g114
s(I52
I-30
tp513
g6
s(I13
I-17
tp514
g6
s(I39
I7
tp515
g88
s(I53
I45
tp516
(F-51000.0
F-17404.0
tp517
s(I62
I-4
tp518
g6
s(I35
I-4
tp519
g6
s(I60
I20
tp520
(F4978.0
F-70000.0
tp521
s(I48
I21
tp522
g114
s(I51
I0
tp523
g6
s(I7
I50
tp524
g140
s(I15
I46
tp525
(F-65700.0
F-65700.0
tp526
s(I15
I-27
tp527
(F-4588.0
F-70000.0
tp528
s(I34
I-5
tp529
(I0
F50351.0
tp530
s(I19
I43
tp531
(F-74555.0
F-68875.0
tp532
s(I31
I-36
tp533
g6
s(I5
I4
tp534
g6
s(I9
I-5
tp535
g6
s(I44
I-31
tp536
g6
s(I22
I-10
tp537
g88
s(I30
I20
tp538
(I0
F161224.0
tp539
s(I52
I33
tp540
g88
s(I17
I1
tp541
g6
s(I16
I-36
tp542
g6
s(I20
I10
tp543
g31
s(I46
I-17
tp544
g6
s(I53
I8
tp545
(I0
F188584.0
tp546
s(I7
I-22
tp547
g6
s(I8
I-36
tp548
(F-57967.0
F-70000.0
tp549
s(I43
I-8
tp550
g6
s(I4
I-33
tp551
(F-97300.0
F-97300.0
tp552
s(I21
I-25
tp553
g6
s(I32
I29
tp554
g2
s(I3
I-6
tp555
g6
s(I18
I32
tp556
g2
s(I29
I-17
tp557
g6
s(I38
I39
tp558
(F-15857.0
F-68714.0
tp559
s(I28
I-16
tp560
g6
s(I43
I40
tp561
g2
s(I64
I-18
tp562
(F63295.0
F-49000.0
tp563
s(I63
I37
tp564
g6
s(I11
I3
tp565
g114
s(I3
I-2
tp566
g6
s(I41
I-20
tp567
g6
s(I58
I-1
tp568
g6
s(I52
I-23
tp569
g6
s(I13
I-24
tp570
g6
s(I46
I4
tp571
g6
s(I49
I-6
tp572
(I0
F132583.0
tp573
s(I61
I15
tp574
g6
s(I62
I-25
tp575
g6
s(I48
I12
tp576
g6
s(I52
I-19
tp577
g6
s(I40
I47
tp578
g31
s(I51
I9
tp579
g6
s(I15
I-30
tp580
(F-17862.0
F-70000.0
tp581
s(I54
I22
tp582
g6
s(I19
I48
tp583
(F-51846.0
F-70000.0
tp584
s(I2
I8
tp585
g6
s(I48
I-35
tp586
g6
s(I5
I13
tp587
g2
s(I9
I-4
tp588
g6
s(I36
I-31
tp589
g6
s(I27
I48
tp590
(I0
F0.0
tp591
s(I49
I51
tp592
(F-30000.0
F-51000.0
tp593
s(I58
I-21
tp594
g178
s(I52
I40
tp595
g88
s(I56
I43
tp596
g178
s(I55
I13
tp597
g6
s(I46
I41
tp598
g88
s(I46
I-10
tp599
g6
s(I23
I36
tp600
(F0.0
F-30000.0
tp601
s(I7
I-29
tp602
g6
s(I43
I-15
tp603
g6
s(I10
I43
tp604
g140
s(I21
I-32
tp605
g6
s(I40
I-20
tp606
g6
s(I31
I36
tp607
g2
s(I57
I41
tp608
(F-14850.0
F-70000.0
tp609
s(I31
I35
tp610
g2
s(I52
I24
tp611
g6
s(I18
I27
tp612
g2
s(I31
I-6
tp613
g6
s(I40
I52
tp614
g2
s(I43
I33
tp615
g31
s(I64
I-27
tp616
(F72226.0
F-70000.0
tp617
s(I6
I-8
tp618
g6
s(I63
I34
tp619
g114
s(I28
I-3
tp620
g6
s(I3
I-25
tp621
g6
s(I55
I-19
tp622
g6
s(I14
I23
tp623
g2
s(I36
I0
tp624
g6
s(I13
I-31
tp625
g6
s(I49
I-13
tp626
(I0
F0.0
tp627
s(I61
I8
tp628
g6
s(I62
I-18
tp629
g6
s(I38
I31
tp630
(F-69027.0
F-68366.0
tp631
s(I48
I3
tp632
g6
s(I37
I-8
tp633
g6
s(I15
I-21
tp634
(F-11419.0
F-17352.0
tp635
s(I55
I-2
tp636
g6
s(I2
I3
tp637
g6
s(I12
I-2
tp638
(F104838.0
F-998.0
tp639
s(I35
I7
tp640
g6
s(I9
I-27
tp641
g6
s(I44
I-41
tp642
g6
s(I27
I9
tp643
(I0
F73713.0
tp644
s(I58
I-14
tp645
g6
s(I41
I20
tp646
g6
s(I33
I-20
tp647
g6
s(I20
I24
tp648
g2
s(I3
I32
tp649
g2
s(I11
I-33
tp650
g6
s(I46
I-7
tp651
g6
s(I6
I31
tp652
g2
s(I43
I-10
tp653
g6
s(I38
I48
tp654
(F0.0
F-70000.0
tp655
s(I21
I-23
tp656
g6
s(I32
I43
tp657
g2
s(I54
I18
tp658
g6
s(I18
I-4
tp659
g6
s(I35
I38
tp660
g2
s(I18
I18
tp661
g88
s(I57
I21
tp662
(F2975.0
F-67220.0
tp663
s(I21
I7
tp664
g178
s(I30
I2
tp665
(I0
F53267.0
tp666
s(I60
I38
tp667
(F44729.0
F-43405.0
tp668
s(I43
I38
tp669
g2
s(I8
I4
tp670
(I0
F6834.0
tp671
s(I6
I-13
tp672
g6
s(I63
I43
tp673
g6
s(I56
I28
tp674
g6
s(I3
I-20
tp675
g6
s(I4
I-24
tp676
(F-95590.0
F-97300.0
tp677
s(I33
I12
tp678
g6
s(I63
I-21
tp679
g6
s(I55
I25
tp680
g6
s(I36
I15
tp681
g6
s(I49
I-12
tp682
(I0
F82397.0
tp683
s(I31
I-17
tp684
g6
s(I27
I-25
tp685
(F59977.0
F-404.0
tp686
s(I62
I30
tp687
g6
s(I47
I10
tp688
g6
s(I12
I16
tp689
(I0
F128977.0
tp690
s(I63
I8
tp691
g6
s(I15
I5
tp692
(I0
F162496.0
tp693
s(I15
I-16
tp694
(F96638.0
F-7610.0
tp695
s(I51
I-13
tp696
g6
s(I12
I-11
tp697
(F8674.0
F-37085.0
tp698
s(I24
I51
tp699
g2
s(I53
I7
tp700
(I0
F101947.0
tp701
s(I9
I-18
tp702
g6
s(I27
I14
tp703
(I0
F33394.0
tp704
s(I49
I29
tp705
(F-18797.0
F-18650.0
tp706
s(I30
I9
tp707
(I0
F127552.0
tp708
s(I33
I-27
tp709
g6
s(I20
I39
tp710
g2
s(I8
I8
tp711
(I0
F106445.0
tp712
s(I58
I-22
tp713
g6
s(I6
I22
tp714
g2
s(I8
I-15
tp715
(F-68401.0
F-67845.0
tp716
s(I43
I-17
tp717
g6
s(I28
I39
tp718
g23
s(I32
I-4
tp719
g6
s(I21
I-14
tp720
g6
s(I32
I34
tp721
g31
s(I31
I42
tp722
g2
s(I16
I-6
tp723
g6
s(I18
I-9
tp724
g6
s(I48
I22
tp725
g6
s(I18
I13
tp726
g2
s(I31
I-24
tp727
g6
s(I40
I34
tp728
g2
s(I21
I0
tp729
g6
s(I28
I-35
tp730
g6
s(I43
I31
tp731
g88
s(I64
I-13
tp732
(F135081.0
F-70000.0
tp733
s(I6
I-22
tp734
g6
s(I61
I-11
tp735
g6
s(I20
I-35
tp736
g6
s(I33
I5
tp737
g6
s(I20
I-2
tp738
g6
s(I59
I31
tp739
g114
s(I30
I-13
tp740
(I0
F182272.0
tp741
s(I39
I43
tp742
g2
s(I27
I-4
tp743
(I0
F72090.0
tp744
s(I33
I0
tp745
g6
s(I12
I15
tp746
(I0
F121331.0
tp747
s(I26
I-7
tp748
g6
s(I37
I-22
tp749
g6
s(I16
I-33
tp750
g6
s(I15
I2
tp751
(I0
F58730.0
tp752
s(I15
I-7
tp753
(F67032.0
F-11108.0
tp754
s(I15
I-20
tp755
(F-13078.0
F56536.0
tp756
s(I37
I17
tp757
g6
s(I46
I30
tp758
g88
s(I51
I37
tp759
g178
s(I27
I7
tp760
(I0
F138239.0
tp761
s(I49
I22
tp762
(F-13.0
F-3088.0
tp763
s(I36
I11
tp764
g6
s(I52
I5
tp765
g6
s(I36
I-7
tp766
g6
s(I14
I-30
tp767
g6
s(I55
I24
tp768
g6
s(I20
I46
tp769
g2
s(I26
I4
tp770
g6
s(I23
I51
tp771
g2
s(I6
I9
tp772
g178
s(I64
I0
tp773
(F122417.0
F-43664.0
tp774
s(I43
I-28
tp775
g6
s(I21
I-5
tp776
g6
s(I57
I-27
tp777
(I0
F111466.0
tp778
s(I54
I17
tp779
g6
s(I18
I-18
tp780
g6
s(I53
I34
tp781
(F156.0
F-8052.0
tp782
s(I18
I4
tp783
g6
s(I21
I11
tp784
g31
s(I57
I39
tp785
(F-5465.0
F-5179.0
tp786
s(I40
I41
tp787
g2
s(I21
I9
tp788
g88
s(I43
I20
tp789
g114
s(I8
I-33
tp790
(I0
F-19110.0
tp791
s(I6
I-19
tp792
g6
s(I42
I-9
tp793
(I0
F0.0
tp794
s(I11
I47
tp795
g2
s(I3
I-38
tp796
g23
s(I20
I-28
tp797
g6
s(I55
I-8
tp798
g6
s(I16
I50
tp799
g2
s(I61
I29
tp800
g6
s(I30
I-6
tp801
(F87085.0
F-67590.0
tp802
s(I49
I-26
tp803
g6
s(I53
I-32
tp804
g178
s(I27
I-11
tp805
(F117178.0
F-70000.0
tp806
s(I44
I45
tp807
g31
s(I48
I35
tp808
g178
s(I48
I40
tp809
g114
s(I12
I6
tp810
g2
s(I37
I-6
tp811
g6
s(I15
I11
tp812
(I0
F0.0
tp813
s(I41
I43
tp814
g31
s(I51
I-20
tp815
g6
s(I12
I-21
tp816
(F-33446.0
F-28404.0
tp817
s(I24
I1
tp818
g6
s(I62
I18
tp819
g6
s(I61
I-6
tp820
g6
s(I55
I2
tp821
g6
s(I49
I15
tp822
(I0
F104560.0
tp823
s(I54
I3
tp824
g6
s(I36
I-4
tp825
g6
s(I14
I-27
tp826
g6
s(I55
I17
tp827
g6
s(I3
I23
tp828
g2
s(I25
I38
tp829
g2
s(I6
I0
tp830
g6
s(I64
I7
tp831
(F104993.0
F-70000.0
tp832
s(I37
I-19
tp833
g6
s(I32
I48
tp834
g140
s(I57
I-18
tp835
(I0
F0.0
tp836
s(I25
I12
tp837
g178
s(I18
I-23
tp838
g6
s(I35
I-35
tp839
g6
s(I47
I-8
tp840
g6
s(I31
I-34
tp841
g6
s(I32
I-24
tp842
g6
s(I57
I8
tp843
(I0
F101872.0
tp844
s(I43
I13
tp845
g6
s(I6
I-28
tp846
g6
s(I23
I-34
tp847
g6
s(I42
I-2
tp848
(I0
F101934.0
tp849
s(I11
I36
tp850
g2
s(I20
I-29
tp851
g6
s(I55
I-15
tp852
g6
s(I16
I41
tp853
g2
s(I36
I36
tp854
g88
s(I37
I20
tp855
g31
s(I58
I9
tp856
g6
s(I61
I44
tp857
g6
s(I44
I36
tp858
g114
s(I9
I30
tp859
g2
s(I5
I-11
tp860
g6
s(I48
I47
tp861
g2
s(I-2
I4
tp862
g6
s(I34
I14
tp863
(I0
F138108.0
tp864
s(I15
I16
tp865
(I0
F70664.0
tp866
s(I51
I-11
tp867
g6
s(I12
I-30
tp868
(F-28374.0
F-37379.0
tp869
s(I48
I-16
tp870
g6
s(I26
I-31
tp871
g6
s(I61
I-13
tp872
g6
s(I40
I21
tp873
g6
s(I49
I0
tp874
(I0
F81225.0
tp875
s(I36
I-5
tp876
g6
s(I14
I-20
tp877
g6
s(I3
I28
tp878
g2
s(I11
I-5
tp879
g6
s(I53
I17
tp880
(I0
F98817.0
tp881
s(I64
I30
tp882
(F101790.0
F-70000.0
tp883
s(I60
I-20
tp884
(F33828.0
F-63700.0
tp885
s(I24
I-12
tp886
g6
s(I27
I2
tp887
(I0
F80290.0
tp888
s(I57
I-9
tp889
(I0
F98364.0
tp890
s(I18
I-32
tp891
g6
s(I59
I14
tp892
g6
s(I32
I-17
tp893
g6
s(I21
I27
tp894
g2
s(I4
I37
tp895
(I0
F-70000.0
tp896
s(I43
I2
tp897
g6
s(I24
I28
tp898
g2
s(I6
I-33
tp899
g6
s(I23
I-41
tp900
(F-34300.0
F-44590.0
tp901
s(I46
I13
tp902
g6
s(I29
I43
tp903
g2
s(I24
I-31
tp904
g6
s(I20
I-22
tp905
g6
s(I33
I40
tp906
g2
s(I56
I24
tp907
g6
s(I17
I-7
tp908
g114
s(I36
I35
tp909
g88
s(I58
I16
tp910
g6
s(I22
I10
tp911
g88
s(I26
I-3
tp912
g6
s(I44
I35
tp913
g114
s(I9
I7
tp914
g178
s(I5
I-2
tp915
g6
s(I24
I-34
tp916
g6
s(I52
I-12
tp917
g6
s(I19
I-45
tp918
g6
s(I54
I-19
tp919
g6
s(I15
I25
tp920
(I0
F90541.0
tp921
s(I51
I-6
tp922
g6
s(I48
I-9
tp923
g6
s(I62
I28
tp924
g6
s(I49
I52
tp925
g2
s(I36
I-30
tp926
g2
s(I0
I8
tp927
(I0
F65567.0
tp928
s(I14
I-9
tp929
g6
s(I3
I5
tp930
g6
s(I11
I-16
tp931
g6
s(I25
I48
tp932
g2
s(I8
I-19
tp933
(F-67197.0
F-67197.0
tp934
s(I29
I8
tp935
g6
s(I60
I-21
tp936
(F82117.0
F-70000.0
tp937
s(I62
I-23
tp938
g6
s(I61
I3
tp939
g6
s(I38
I-36
tp940
g6
s(I57
I-8
tp941
(I0
F61527.0
tp942
s(I18
I-37
tp943
g2
s(I27
I-22
tp944
(I0
F23817.0
tp945
s(I42
I35
tp946
(I0
F-7761.0
tp947
s(I34
I44
tp948
(F0.0
F-30000.0
tp949
s(I40
I30
tp950
g31
s(I21
I36
tp951
g2
s(I62
I-22
tp952
g6
s(I10
I-37
tp953
g6
s(I45
I-3
tp954
(I0
F90200.0
tp955
s(I23
I-20
tp956
(I0
F-1032.0
tp957
s(I42
I-32
tp958
g6
s(I29
I36
tp959
g2
s(I58
I18
tp960
g6
s(I20
I-15
tp961
g6
s(I33
I33
tp962
g88
s(I16
I39
tp963
g140
s(I17
I-14
tp964
g6
s(I36
I42
tp965
g2
s(I6
I10
tp966
g178
s(I30
I-17
tp967
(I0
F95875.0
tp968
s(I41
I33
tp969
g114
s(I22
I13
tp970
g2
s(I27
I-40
tp971
(I0
F0.0
tp972
s(I44
I26
tp973
g6
s(I9
I8
tp974
g178
s(I5
I-25
tp975
g6
s(I12
I51
tp976
g2
s(I19
I-40
tp977
(F-70000.0
F-79818.0
tp978
s(I54
I-28
tp979
g6
s(I15
I-35
tp980
(I0
F0.0
tp981
s(I12
I14
tp982
(I0
F54995.0
tp983
s(I59
I8
tp984
g6
s(I48
I-18
tp985
g6
s(I62
I7
tp986
g6
s(I37
I-4
tp987
g6
s(I39
I-12
tp988
g6
s(I21
I-2
tp989
g6
s(I13
I12
tp990
g88
s(I63
I-11
tp991
g6
s(I36
I-23
tp992
g6
s(I14
I-1
tp993
g6
s(I38
I28
tp994
(F0.0
F-46929.0
tp995
s(I11
I-23
tp996
g6
s(I28
I2
tp997
g6
s(I50
I19
tp998
g6
s(I54
I21
tp999
g6
s(I35
I-16
tp1000
g6
s(I13
I-33
tp1001
g6
s(I40
I5
tp1002
g6
s(I21
I45
tp1003
g2
s(I44
I-1
tp1004
g6
s(I45
I-10
tp1005
(I0
F132900.0
tp1006
s(I60
I28
tp1007
(F37997.0
F-70000.0
tp1008
s(I42
I-21
tp1009
g6
s(I20
I-8
tp1010
g6
s(I56
I-26
tp1011
g6
s(I17
I-21
tp1012
g6
s(I54
I47
tp1013
g2
s(I30
I-42
tp1014
(I0
F0.0
tp1015
s(I41
I42
tp1016
g2
s(I22
I4
tp1017
g6
s(I44
I17
tp1018
g114
s(I5
I-32
tp1019
g6
s(I47
I4
tp1020
g6
s(I12
I42
tp1021
(F-51000.0
F-30000.0
tp1022
s(I19
I-31
tp1023
(F-7874.0
F-5246.0
tp1024
s(I34
I27
tp1025
(F-60627.0
F-70000.0
tp1026
s(I17
I49
tp1027
g2
s(I15
I-38
tp1028
(F-13918.0
F-70000.0
tp1029
s(I38
I-26
tp1030
(I0
F0.0
tp1031
s(I51
I-8
tp1032
g6
s(I59
I1
tp1033
g6
s(I48
I-27
tp1034
g6
s(I35
I-10
tp1035
g6
s(I62
I14
tp1036
g6
s(I45
I46
tp1037
(F0.0
F-5511.0
tp1038
s(I39
I-19
tp1039
g6
s(I30
I-1
tp1040
(I0
F46261.0
tp1041
s(I13
I5
tp1042
g114
s(I0
I6
tp1043
(F95555.0
F-46495.0
tp1044
s(I38
I23
tp1045
(I0
F98350.0
tp1046
s(I11
I-18
tp1047
g6
s(I63
I-12
tp1048
g6
s(I24
I13
tp1049
g31
s(I25
I-29
tp1050
g6
s(I60
I-7
tp1051
(F85810.0
F-70000.0
tp1052
s(I32
I-13
tp1053
g6
s(I50
I10
tp1054
g6
s(I41
I-14
tp1055
g6
s(I16
I-15
tp1056
g6
s(I35
I-7
tp1057
g6
s(I13
I-40
tp1058
g6
s(I32
I-12
tp1059
g6
s(I45
I-17
tp1060
(I0
F-91000.0
tp1061
s(I26
I35
tp1062
g2
s(I7
I7
tp1063
g178
s(I23
I-30
tp1064
(I0
F0.0
tp1065
s(I46
I38
tp1066
g114
s(I33
I51
tp1067
g23
s(I56
I-19
tp1068
g6
s(I52
I43
tp1069
g23
s(I17
I-20
tp1070
g6
s(I54
I38
tp1071
g88
s(I19
I0
tp1072
(I0
F129865.0
tp1073
s(I59
I20
tp1074
g6
s(I58
I45
tp1075
g2
s(I47
I-27
tp1076
g6
s(I22
I31
tp1077
g2
s(I61
I48
tp1078
g6
s(I44
I8
tp1079
g6
s(I5
I-23
tp1080
g6
s(I41
I-5
tp1081
g6
s(I12
I33
tp1082
(I0
F0.0
tp1083
s(I19
I-26
tp1084
(F-6966.0
F-4035.0
tp1085
s(I34
I18
tp1086
(I0
F110188.0
tp1087
s(I17
I42
tp1088
g2
s(I36
I31
tp1089
g2
s(I46
I35
tp1090
g2
s(I37
I39
tp1091
g31
s(I55
I14
tp1092
g6
s(I29
I-32
tp1093
g6
s(I42
I50
tp1094
(F-99190.0
F-98677.0
tp1095
s(I62
I35
tp1096
g6
s(I45
I39
tp1097
(F-32577.0
F-83432.0
tp1098
s(I10
I27
tp1099
g2
s(I4
I-10
tp1100
(F-99927.0
F-99927.0
tp1101
s(I39
I-22
tp1102
g6
s(I25
I-7
tp1103
g6
s(I53
I-25
tp1104
g6
s(I33
I35
tp1105
g31
s(I38
I14
tp1106
(I0
F103082.0
tp1107
s(I11
I-25
tp1108
g6
s(I60
I30
tp1109
(F112511.0
F-70000.0
tp1110
s(I63
I-3
tp1111
g6
s(I46
I-11
tp1112
g6
s(I25
I-28
tp1113
g6
s(I60
I-16
tp1114
(F108502.0
F-63700.0
tp1115
s(I30
I-9
tp1116
(I0
F78608.0
tp1117
s(I50
I5
tp1118
g6
s(I56
I-20
tp1119
g6
s(I14
I39
tp1120
g2
s(I35
I-2
tp1121
g6
s(I49
I-31
tp1122
(I0
F-70000.0
tp1123
s(I7
I-36
tp1124
g114
s(I24
I-24
tp1125
g6
s(I4
I25
tp1126
(F-70000.0
F-91000.0
tp1127
s(I10
I-12
tp1128
g6
s(I45
I-24
tp1129
(I0
F111466.0
tp1130
s(I26
I42
tp1131
g2
s(I23
I-5
tp1132
(I0
F53451.0
tp1133
s(I42
I-35
tp1134
(I0
F0.0
tp1135
s(I59
I-23
tp1136
g6
s(I33
I52
tp1137
g23
s(I56
I-12
tp1138
g6
s(I17
I-27
tp1139
g6
s(I34
I-35
tp1140
(F118074.0
F-70000.0
tp1141
s(I19
I9
tp1142
(I0
F59282.0
tp1143
s(I11
I-2
tp1144
g6
s(I47
I-30
tp1145
g6
s(I22
I22
tp1146
g88
s(I9
I-43
tp1147
g2
s(I44
I7
tp1148
g6
s(I41
I-4
tp1149
g6
s(I19
I-17
tp1150
(I0
F43870.0
tp1151
s(I34
I45
tp1152
g140
s(I17
I35
tp1153
g23
s(I56
I2
tp1154
g6
s(I37
I32
tp1155
g2
s(I29
I-7
tp1156
g6
s(I23
I13
tp1157
(I0
F56912.0
tp1158
s(I64
I19
tp1159
(I0
F-70000.0
tp1160
s(I45
I32
tp1161
(F-40493.0
F-58100.0
tp1162
s(I10
I2
tp1163
g6
s(I4
I-3
tp1164
(F-91000.0
F86969.0
tp1165
s(I49
I37
tp1166
(F-17154.0
F-57164.0
tp1167
s(I54
I26
tp1168
g6
s(I49
I48
tp1169
g140
s(I35
I22
tp1170
g178
s(I28
I9
tp1171
g6
s(I38
I1
tp1172
(I0
F71330.0
tp1173
s(I6
I-25
tp1174
g6
s(I51
I-1
tp1175
g6
s(I63
I-6
tp1176
g6
s(I63
I27
tp1177
g114
s(I38
I-8
tp1178
(I0
F72304.0
tp1179
s(I25
I8
tp1180
g31
s(I14
I46
tp1181
g2
s(I35
I-25
tp1182
g6
s(I1
I11
tp1183
g6
s(I4
I0
tp1184
(F94776.0
F-70000.0
tp1185
s(I31
I12
tp1186
g6
s(I23
I-16
tp1187
(I0
F103062.0
tp1188
s(I47
I2
tp1189
g6
s(I59
I-18
tp1190
g6
s(I48
I-7
tp1191
g6
s(I51
I39
tp1192
g88
s(I56
I-5
tp1193
g6
s(I17
I-34
tp1194
g6
s(I54
I48
tp1195
g2
s(I19
I14
tp1196
(I0
F0.0
tp1197
s(I41
I29
tp1198
g88
s(I22
I41
tp1199
g2
s(I5
I47
tp1200
g23
s(I9
I-34
tp1201
g6
s(I44
I-2
tp1202
g6
s(I22
I-21
tp1203
g6
s(I47
I19
tp1204
g6
s(I19
I-12
tp1205
(I0
F91972.0
tp1206
s(I34
I36
tp1207
(F-7467.0
F-66851.0
tp1208
s(I17
I36
tp1209
g23
s(I56
I9
tp1210
g6
s(I51
I-33
tp1211
g178
s(I64
I-8
tp1212
(F127056.0
F-70000.0
tp1213
s(I29
I-14
tp1214
g6
s(I42
I36
tp1215
(F-160.0
F-74035.0
tp1216
s(I23
I10
tp1217
(I0
F52530.0
tp1218
s(I40
I-33
tp1219
g6
s(I26
I-41
tp1220
g6
s(I45
I25
tp1221
(I0
F28821.0
tp1222
s(I10
I13
tp1223
g2
s(I41
I-33
tp1224
g6
s(I13
I48
tp1225
g2
s(I54
I19
tp1226
g6
s(I53
I-23
tp1227
g88
s(I14
I-38
tp1228
g6
s(I50
I-4
tp1229
g6
s(I28
I-19
tp1230
g6
s(I63
I-29
tp1231
g6
s(I63
I0
tp1232
g6
s(I61
I-3
tp1233
g6
s(I38
I-13
tp1234
(I0
F0.0
tp1235
s(I35
I-20
tp1236
g6
s(I59
I7
tp1237
g6
s(I60
I16
tp1238
(F9559.0
F-43848.0
tp1239
s(I49
I-35
tp1240
(I0
F-70000.0
tp1241
s(I10
I-26
tp1242
g6
s(I45
I-38
tp1243
g6
s(I33
I8
tp1244
g6
s(I29
I1
tp1245
g6
s(I51
I44
tp1246
g2
s(I56
I31
tp1247
g178
s(I17
I-41
tp1248
g6
s(I54
I11
tp1249
g6
s(I19
I23
tp1250
(I0
F121303.0
tp1251
s(I12
I-36
tp1252
(F-34959.0
F-70000.0
tp1253
s(I41
I6
tp1254
g6
s(I44
I-11
tp1255
g6
s(I9
I45
tp1256
g23
s(I22
I-30
tp1257
g6
s(I41
I-18
tp1258
g6
s(I30
I32
tp1259
(F0.0
F-66851.0
tp1260
s(I19
I-3
tp1261
(I0
F163803.0
tp1262
s(I36
I-15
tp1263
g6
s(I16
I-24
tp1264
g6
s(I55
I40
tp1265
g2
s(I59
I45
tp1266
g2
s(I46
I-37
tp1267
g6
s(I23
I3
tp1268
(I0
F138173.0
tp1269
s(I7
I-2
tp1270
g6
s(I62
I42
tp1271
g31
s(I45
I18
tp1272
(I0
F75756.0
tp1273
s(I4
I-29
tp1274
(F-97300.0
F-99190.0
tp1275
s(I49
I45
tp1276
(F-75707.0
F-79000.0
tp1277
s(I32
I9
tp1278
g114
s(I13
I41
tp1279
g2
s(I35
I4
tp1280
g6
s(I14
I-35
tp1281
g6
s(I38
I51
tp1282
(I0
F-70000.0
tp1283
s(I55
I20
tp1284
g6
s(I28
I-28
tp1285
g6
s(I63
I-24
tp1286
g6
s(I63
I9
tp1287
g6
s(I11
I31
tp1288
g2
s(I38
I-22
tp1289
(I0
F16069.0
tp1290
s(I61
I5
tp1291
g6
s(I1
I5
tp1292
g6
s(I13
I-4
tp1293
g6
s(I39
I16
tp1294
g114
s(I62
I-19
tp1295
g6
s(I10
I-31
tp1296
g2
s(I62
I-13
tp1297
g6
s(I51
I15
tp1298
g6
s(I24
I-32
tp1299
g6
s(I29
I26
tp1300
g23
s(I58
I29
tp1301
g6
s(I54
I2
tp1302
g88
s(I19
I28
tp1303
(I0
F104007.0
tp1304
s(I12
I-37
tp1305
(F-24874.0
F-92180.0
tp1306
s(I41
I15
tp1307
g6
s(I44
I-20
tp1308
g6
s(I27
I44
tp1309
(F-21792.0
F-70000.0
tp1310
s(I22
I-27
tp1311
g6
s(I47
I33
tp1312
g178
s(I30
I43
tp1313
g2
s(I34
I-17
tp1314
(I0
F96388.0
tp1315
s(I17
I22
tp1316
g2
s(I56
I23
tp1317
g6
s(I55
I33
tp1318
g6
s(I20
I5
tp1319
g88
s(I59
I34
tp1320
g6
s(I42
I22
tp1321
(F-15483.0
F-21669.0
tp1322
s(I23
I24
tp1323
(I0
F25372.0
tp1324
s(I7
I-9
tp1325
g6
s(I62
I45
tp1326
g6
s(I45
I11
tp1327
(I0
F104763.0
tp1328
s(I28
I-2
tp1329
g6
s(I4
I-22
tp1330
(F-99830.0
F-99927.0
tp1331
s(I40
I-8
tp1332
g6
s(I13
I34
tp1333
g2
s(I25
I4
tp1334
g6
s(I26
I7
tp1335
g6
s(I35
I13
tp1336
g6
s(I18
I47
tp1337
g23
s(I47
I-16
tp1338
g6
s(I38
I42
tp1339
(F0.0
F-3606.0
tp1340
s(I31
I-10
tp1341
g6
s(I60
I3
tp1342
(F62894.0
F-70000.0
tp1343
s(I57
I-23
tp1344
(I0
F89901.0
tp1345
s(I53
I26
tp1346
(I0
F95041.0
tp1347
s(I50
I-26
tp1348
g88
s(I11
I20
tp1349
g2
s(I-3
I13
tp1350
g6
s(I38
I-19
tp1351
(I0
F135337.0
tp1352
s(I63
I19
tp1353
g6
s(I14
I3
tp1354
g6
s(I0
I-1
tp1355
(F-70000.0
F-125300.0
tp1356
s(I52
I-28
tp1357
g114
s(I13
I-11
tp1358
g6
s(I39
I9
tp1359
g6
s(I10
I-24
tp1360
g6
s(I62
I-6
tp1361
g6
s(I28
I-5
tp1362
g6
s(I24
I-25
tp1363
g6
s(I29
I19
tp1364
g31
s(I54
I-26
tp1365
g114
s(I15
I32
tp1366
(I0
F0.0
tp1367
s(I54
I5
tp1368
g6
s(I19
I37
tp1369
g23
s(I64
I-23
tp1370
(F38347.0
F-70000.0
tp1371
s(I31
I-35
tp1372
g6
s(I5
I26
tp1373
g2
s(I9
I-15
tp1374
g6
s(I44
I-21
tp1375
g6
s(I27
I37
tp1376
(F-64488.0
F-2161.0
tp1377
s(I22
I-4
tp1378
g6
s(I47
I46
tp1379
g88
s(I58
I-26
tp1380
g178
s(I37
I-9
tp1381
g6
s(I16
I-26
tp1382
g6
s(I33
I-40
tp1383
g6
s(I20
I12
tp1384
g114
s(I29
I-35
tp1385
g6
s(I42
I17
tp1386
(F20365.0
F-12213.0
tp1387
s(I23
I17
tp1388
(I0
F26988.0
tp1389
s(I7
I-20
tp1390
g6
s(I45
I4
tp1391
(I0
F18728.0
tp1392
s(I10
I38
tp1393
g2
s(I48
I-8
tp1394
g6
s(I21
I-35
tp1395
g6
s(I32
I7
tp1396
g6
s(I-3
I5
tp1397
g6
s(I35
I50
tp1398
g2
s(I18
I38
tp1399
g2
s(I57
I1
tp1400
(I0
F87978.0
tp1401
s(I50
I-23
tp1402
g6
s(I28
I-6
tp1403
g6
s(I43
I50
tp1404
g23
s(I64
I-24
tp1405
g6
s(I11
I13
tp1406
g31
s(I3
I-8
tp1407
g6
s(I38
I-28
tp1408
(I0
F89901.0
tp1409
s(I56
I16
tp1410
g114
s(I30
I5
tp1411
(I0
F158610.0
tp1412
s(I52
I-29
tp1413
g114
s(I13
I-18
tp1414
g6
s(I46
I7
tp1415
g6
s(I39
I6
tp1416
g6
s(I26
I-11
tp1417
g6
s(I62
I-3
tp1418
g6
s(I24
I-18
tp1419
g6
s(I60
I12
tp1420
(F3188.0
F-44540.0
tp1421
s(I37
I-11
tp1422
g6
s(I6
I51
tp1423
g140
s(I15
I-28
tp1424
(F-12544.0
F-17728.0
tp1425
s(I54
I28
tp1426
g6
s(I64
I20
tp1427
(F139980.0
F-91000.0
tp1428
s(I5
I3
tp1429
g6
s(I9
I-6
tp1430
g6
s(I44
I-30
tp1431
g6
s(I22
I-9
tp1432
g6
s(I30
I21
tp1433
(I0
F-1087.0
tp1434
s(I52
I34
tp1435
g31
s(I17
I0
tp1436
g6
s(I16
I-35
tp1437
g6
s(I7
I-1
tp1438
g6
s(I20
I11
tp1439
g114
s(I55
I7
tp1440
g6
s(I46
I-20
tp1441
g6
s(I23
I46
tp1442
(F-29604.0
F-70000.0
tp1443
s(I7
I-27
tp1444
g6
s(I8
I-35
tp1445
(F-61980.0
F-61054.0
tp1446
s(I43
I-5
tp1447
g6
s(I59
I-25
tp1448
g178
s(I21
I-26
tp1449
g6
s(I40
I-26
tp1450
g2
s(I52
I31
tp1451
g6
s(I18
I33
tp1452
g2
s(I57
I10
tp1453
(F120917.0
F-10420.0
tp1454
s(I50
I-32
tp1455
g6
s(I35
I-22
tp1456
g6
s(I28
I-15
tp1457
g6
s(I43
I43
tp1458
g88
s(I64
I-17
tp1459
(F98037.0
F-70000.0
tp1460
s(I42
I8
tp1461
(I0
F119215.0
tp1462
s(I63
I36
tp1463
g6
s(I34
I32
tp1464
(F19422.0
F-10289.0
tp1465
s(I11
I2
tp1466
g114
s(I3
I-31
tp1467
g6
s(I16
I11
tp1468
g2
s(I14
I13
tp1469
g88
s(I14
I-8
tp1470
g6
s(I52
I-22
tp1471
g6
s(I24
I-22
tp1472
g6
s(I13
I-25
tp1473
g6
s(I24
I-17
tp1474
g6
s(I27
I-24
tp1475
(I0
F0.0
tp1476
s(I26
I16
tp1477
g31
s(I24
I-11
tp1478
g6
s(I43
I-21
tp1479
g6
s(I37
I-2
tp1480
g6
s(I15
I-19
tp1481
(F-13177.0
F494.0
tp1482
s(I34
I-13
tp1483
(I0
F91258.0
tp1484
s(I37
I-28
tp1485
g6
s(I11
I-9
tp1486
g6
s(I35
I31
tp1487
g2
s(I53
I-14
tp1488
(I0
F89901.0
tp1489
s(I9
I-29
tp1490
g6
s(I44
I-39
tp1491
g6
s(I51
I2
tp1492
g6
s(I43
I-1
tp1493
g6
s(I58
I-24
tp1494
g6
s(I52
I41
tp1495
g31
s(I56
I44
tp1496
g88
s(I55
I12
tp1497
g6
s(I11
I-39
tp1498
g6
s(I46
I-9
tp1499
g6
s(I23
I39
tp1500
(F-100530.0
F-105272.0
tp1501
s(I7
I-30
tp1502
g6
s(I43
I-16
tp1503
g6
s(I50
I-9
tp1504
g6
s(I21
I-17
tp1505
g6
s(I40
I-19
tp1506
g6
s(I54
I29
tp1507
g6
s(I35
I32
tp1508
g2
s(I18
I24
tp1509
g2
s(I30
I-4
tp1510
(I0
F92579.0
tp1511
s(I31
I-27
tp1512
g6
s(I-2
I1
tp1513
g6
s(I60
I40
tp1514
(I0
F-70000.0
tp1515
s(I43
I32
tp1516
g2
s(I64
I-26
tp1517
(I0
F-30000.0
tp1518
s(I6
I-7
tp1519
g6
s(I60
I4
tp1520
(F5495.0
F-42994.0
tp1521
s(I3
I-26
tp1522
g6
s(I55
I-20
tp1523
g6
s(I25
I30
tp1524
g2
s(I52
I-15
tp1525
g6
s(I13
I-32
tp1526
g6
s(I49
I-14
tp1527
(I0
F0.0
tp1528
s(I57
I26
tp1529
(F-2930.0
F-5827.0
tp1530
s(I62
I17
tp1531
g6
s(I27
I-31
tp1532
(I0
F0.0
tp1533
s(I62
I-17
tp1534
g6
s(I48
I4
tp1535
g6
s(I12
I26
tp1536
(F0.0
F-16807.0
tp1537
s(I51
I17
tp1538
g6
s(I15
I-22
tp1539
(F-13918.0
F-70000.0
tp1540
s(I2
I0
tp1541
g6
s(I24
I45
tp1542
g2
s(I9
I-28
tp1543
g6
s(I61
I-18
tp1544
g6
s(I39
I-35
tp1545
g6
s(I30
I7
tp1546
g114
s(I52
I48
tp1547
g2
s(I63
I40
tp1548
g31
s(I55
I5
tp1549
g6
s(I20
I25
tp1550
g2
s(I3
I35
tp1551
g2
s(I11
I-34
tp1552
g178
s(I46
I-1
tp1553
g6
s(I7
I-37
tp1554
g6
s(I43
I-23
tp1555
g6
s(I28
I41
tp1556
g2
s(I32
I-5
tp1557
g6
s(I21
I-24
tp1558
g6
s(I32
I44
tp1559
g2
s(I31
I44
tp1560
g2
s(I56
I1
tp1561
g6
s(I18
I-3
tp1562
g6
s(I35
I41
tp1563
g2
s(I18
I19
tp1564
g2
s(I31
I-30
tp1565
g6
s(I21
I6
tp1566
g88
s(I60
I39
tp1567
(F95732.0
F-70000.0
tp1568
s(I43
I25
tp1569
g6
s(I8
I5
tp1570
g6
s(I6
I-16
tp1571
g6
s(I63
I42
tp1572
g2
s(I11
I48
tp1573
g23
s(I3
I-17
tp1574
g6
s(I20
I-41
tp1575
g2
s(I55
I-27
tp1576
g6
s(I14
I31
tp1577
g2
s(I52
I-8
tp1578
g6
s(I59
I28
tp1579
g6
s(I49
I-21
tp1580
(I0
F0.0
tp1581
s(I61
I0
tp1582
g6
s(I55
I-25
tp1583
g114
s(I41
I-9
tp1584
g6
s(I49
I3
tp1585
(I0
F72217.0
tp1586
s(I12
I17
tp1587
(I0
F22219.0
tp1588
s(I37
I-32
tp1589
g6
s(I16
I-34
tp1590
g6
s(I15
I4
tp1591
(I0
F140903.0
tp1592
s(I15
I-13
tp1593
(F91554.0
F-17409.0
tp1594
s(I51
I-31
tp1595
g6
s(I12
I-10
tp1596
(F71347.0
F-15800.0
tp1597
s(I9
I-19
tp1598
g6
s(I27
I1
tp1599
(I0
F39018.0
tp1600
s(I39
I-38
tp1601
g6
s(I58
I-6
tp1602
g6
s(I8
I43
tp1603
g140
s(I52
I39
tp1604
g178
s(I29
I40
tp1605
g2
s(I33
I-28
tp1606
g6
s(I45
I47
tp1607
(F-115520.0
F-128042.0
tp1608
s(I11
I-41
tp1609
g6
s(I6
I23
tp1610
g2
s(I64
I10
tp1611
(F4610.0
F-63391.0
tp1612
s(I43
I-18
tp1613
g6
s(I28
I32
tp1614
g2
s(I21
I-15
tp1615
g6
s(I40
I-37
tp1616
g6
s(I57
I-29
tp1617
g6
s(I18
I-12
tp1618
g6
s(I18
I10
tp1619
g114
s(I31
I-21
tp1620
g6
s(I32
I-37
tp1621
g6
s(I48
I24
tp1622
g31
s(I35
I-43
tp1623
g6
s(I43
I30
tp1624
g178
s(I64
I-12
tp1625
(F134644.0
F-49000.0
tp1626
s(I6
I-21
tp1627
g6
s(I59
I-4
tp1628
g6
s(I11
I41
tp1629
g140
s(I20
I-34
tp1630
g6
s(I33
I4
tp1631
g6
s(I61
I30
tp1632
g6
s(I58
I4
tp1633
g6
s(I49
I-20
tp1634
(I0
F111466.0
tp1635
s(I53
I-31
tp1636
(I0
F0.0
tp1637
s(I61
I25
tp1638
g6
s(I9
I19
tp1639
g2
s(I48
I50
tp1640
g23
s(I12
I8
tp1641
g2
s(I37
I-23
tp1642
g6
s(I15
I-8
tp1643
(I0
F41193.0
tp1644
s(I40
I-25
tp1645
g6
s(I51
I-26
tp1646
g6
s(I12
I-19
tp1647
(F-36822.0
F-41224.0
tp1648
s(I8
I-29
tp1649
(I0
F-6300.0
tp1650
s(I27
I6
tp1651
(I0
F9251.0
tp1652
s(I49
I21
tp1653
(F-14306.0
F-49185.0
tp1654
s(I34
I-26
tp1655
(I0
F14790.0
tp1656
s(I52
I6
tp1657
g6
s(I14
I-29
tp1658
g2
s(I33
I-3
tp1659
g6
s(I20
I47
tp1660
g2
s(I23
I50
tp1661
g140
s(I6
I14
tp1662
g2
s(I8
I-7
tp1663
(I0
F65333.0
tp1664
s(I43
I-25
tp1665
g6
s(I64
I29
tp1666
(F96974.0
F-70000.0
tp1667
s(I21
I-6
tp1668
g6
s(I6
I44
tp1669
g23
s(I31
I18
tp1670
g178
s(I63
I-5
tp1671
g6
s(I18
I-17
tp1672
g6
s(I53
I33
tp1673
(F570.0
F-4484.0
tp1674
s(I18
I5
tp1675
g178
s(I47
I-7
tp1676
g6
s(I57
I38
tp1677
(I0
F-34300.0
tp1678
s(I40
I42
tp1679
g31
s(I21
I8
tp1680
g178
s(I43
I23
tp1681
g6
s(I6
I-30
tp1682
g6
s(I42
I-12
tp1683
(I0
F30423.0
tp1684
s(I11
I46
tp1685
g2
s(I3
I-35
tp1686
g6
s(I20
I-27
tp1687
g6
s(I55
I-5
tp1688
g6
s(I26
I0
tp1689
g6
s(I51
I-29
tp1690
g114
s(I30
I-5
tp1691
(I0
F80728.0
tp1692
s(I49
I-27
tp1693
(I0
F-70000.0
tp1694
s(I27
I-12
tp1695
(F54818.0
F-70000.0
tp1696
s(I44
I46
tp1697
g88
s(I28
I-14
tp1698
g6
s(I48
I41
tp1699
g2
s(I12
I7
tp1700
(I0
F0.0
tp1701
s(I-1
I2
tp1702
g6
s(I54
I-7
tp1703
g6
s(I15
I10
tp1704
g2
s(I37
I25
tp1705
g88
s(I12
I-28
tp1706
(F-33565.0
F-41448.0
tp1707
s(I48
I-6
tp1708
g6
s(I26
I-25
tp1709
g6
s(I61
I-7
tp1710
g6
s(I40
I20
tp1711
g6
s(I49
I14
tp1712
(F94047.0
F-6815.0
tp1713
s(I41
I31
tp1714
g31
s(I52
I13
tp1715
g6
s(I14
I-22
tp1716
g6
s(I33
I-10
tp1717
g6
s(I59
I-5
tp1718
g6
s(I35
I-28
tp1719
g6
s(I6
I1
tp1720
g6
s(I8
I-32
tp1721
(F-51690.0
F-44590.0
tp1722
s(I27
I-19
tp1723
(I0
F108333.0
tp1724
s(I27
I3
tp1725
(I0
F103079.0
tp1726
s(I31
I27
tp1727
g2
s(I18
I-26
tp1728
g6
s(I53
I42
tp1729
(F0.0
F-6300.0
tp1730
s(I31
I-39
tp1731
g6
s(I32
I-23
tp1732
g6
s(I21
I17
tp1733
g2
s(I10
I-42
tp1734
g2
s(I43
I12
tp1735
g6
s(I48
I-29
tp1736
g6
s(I6
I-27
tp1737
g6
s(I46
I11
tp1738
g6
s(I11
I39
tp1739
g2
s(I20
I-20
tp1740
g6
s(I55
I-16
tp1741
g6
s(I16
I-17
tp1742
g6
s(I57
I24
tp1743
(I0
F46298.0
tp1744
s(I30
I12
tp1745
(I0
F76267.0
tp1746
s(I36
I37
tp1747
g2
s(I30
I-30
tp1748
(I0
F13568.0
tp1749
s(I61
I43
tp1750
g6
s(I44
I37
tp1751
g2
s(I9
I29
tp1752
g2
s(I5
I-12
tp1753
g6
s(I10
I-2
tp1754
g6
s(I52
I-21
tp1755
g6
s(I-2
I5
tp1756
g6
s(I55
I-32
tp1757
g6
s(I54
I-21
tp1758
g6
s(I15
I19
tp1759
(I0
F121301.0
tp1760
s(I51
I-12
tp1761
g6
s(I12
I-29
tp1762
(F-26891.0
F-15294.0
tp1763
s(I48
I-15
tp1764
g6
s(I26
I-18
tp1765
g6
s(I61
I-14
tp1766
g6
s(I49
I7
tp1767
(I0
F93957.0
tp1768
s(I36
I-28
tp1769
g6
s(I14
I-19
tp1770
g6
s(I55
I28
tp1771
g31
s(I11
I-6
tp1772
g6
s(I25
I46
tp1773
g2
s(I34
I-3
tp1774
(I0
F69676.0
tp1775
s(I8
I-25
tp1776
g6
s(I43
I-43
tp1777
g6
s(I60
I-19
tp1778
(F23077.0
F-70000.0
tp1779
s(I58
I-7
tp1780
g6
s(I50
I30
tp1781
g6
s(I57
I-10
tp1782
(I0
F57730.0
tp1783
s(I18
I-31
tp1784
g6
s(I27
I-21
tp1785
(I0
F93000.0
tp1786
s(I32
I-32
tp1787
g6
s(I21
I26
tp1788
g2
s(I62
I-27
tp1789
g6
s(I43
I5
tp1790
g6
s(I8
I33
tp1791
(I0
F-34300.0
tp1792
s(I6
I-36
tp1793
g6
s(I46
I18
tp1794
g6
s(I29
I42
tp1795
g2
s(I58
I21
tp1796
g6
s(I20
I-21
tp1797
g6
s(I56
I-6
tp1798
g6
s(I16
I33
tp1799
g2
s(I17
I-8
tp1800
g6
s(I32
I0
tp1801
g88
s(I58
I17
tp1802
g6
s(I24
I-10
tp1803
g6
s(I22
I11
tp1804
g2
s(I61
I36
tp1805
g6
s(I44
I28
tp1806
g88
s(I9
I6
tp1807
g178
s(I5
I-3
tp1808
g6
s(I24
I-33
tp1809
g6
s(I44
I-6
tp1810
g6
s(I54
I-30
tp1811
g178
s(I15
I24
tp1812
(I0
F90765.0
tp1813
s(I51
I-3
tp1814
g6
s(I62
I26
tp1815
g6
s(I53
I-5
tp1816
(I0
F115462.0
tp1817
s(I35
I2
tp1818
g6
s(I26
I-23
tp1819
g6
s(I37
I-3
tp1820
g6
s(I39
I-2
tp1821
g6
s(I13
I18
tp1822
g2
s(I35
I25
tp1823
g31
s(I36
I-29
tp1824
g6
s(I64
I1
tp1825
(F118971.0
F-70000.0
tp1826
s(I0
I9
tp1827
(I0
F119376.0
tp1828
s(I14
I-12
tp1829
g6
s(I53
I-21
tp1830
(I0
F0.0
tp1831
s(I50
I-34
tp1832
g178
s(I3
I4
tp1833
g6
s(I11
I-13
tp1834
g6
s(I64
I22
tp1835
(F-1613.0
F-51236.0
tp1836
s(I60
I-28
tp1837
(I0
F-70000.0
tp1838
s(I38
I-35
tp1839
(I0
F0.0
tp1840
s(I34
I-16
tp1841
(I0
F0.0
tp1842
s(I18
I-40
tp1843
g6
s(I43
I-4
tp1844
g6
s(I32
I-25
tp1845
g6
s(I21
I35
tp1846
g2
s(I45
I-4
tp1847
(I0
F77364.0
tp1848
s(I8
I40
tp1849
g23
s(I7
I16
tp1850
g2
s(I28
I-29
tp1851
g6
s(I42
I-31
tp1852
(I0
F0.0
tp1853
s(I29
I35
tp1854
g2
s(I20
I-14
tp1855
g6
s(I33
I32
tp1856
g88
s(I34
I10
tp1857
(I0
F103081.0
tp1858
s(I17
I-15
tp1859
g6
s(I36
I43
tp1860
g2
s(I54
I-13
tp1861
g6
s(I58
I24
tp1862
g6
s(I41
I32
tp1863
g114
s(I22
I2
tp1864
g6
s(I27
I-37
tp1865
(F0.0
F-16807.0
tp1866
s(I44
I27
tp1867
g88
s(I9
I15
tp1868
g2
s(I5
I-26
tp1869
g6
s(I32
I-35
tp1870
g6
s(I12
I44
tp1871
(I0
F-30000.0
tp1872
s(I15
I-1
tp1873
(F110703.0
F-1821.0
tp1874
s(I19
I-37
tp1875
g6
s(I34
I1
tp1876
(I0
F84828.0
tp1877
s(I15
I-36
tp1878
(I0
F0.0
tp1879
s(I37
I15
tp1880
g6
s(I29
I-19
tp1881
g6
s(I24
I23
tp1882
g88
s(I35
I-9
tp1883
g6
s(I26
I-16
tp1884
g6
s(I45
I52
tp1885
g140
s(I6
I-14
tp1886
g6
s(I39
I-9
tp1887
g6
s(I3
I-13
tp1888
g6
s(I36
I-22
tp1889
g6
s(I0
I0
tp1890
(I0
F30565.0
tp1891
s(I50
I41
tp1892
g114
s(I38
I29
tp1893
(I0
F162092.0
tp1894
s(I3
I13
tp1895
g2
s(I11
I-24
tp1896
g6
s(I48
I-12
tp1897
g6
s(I53
I-9
tp1898
(I0
F0.0
tp1899
s(I60
I-29
tp1900
(F118384.0
F-70000.0
tp1901
s(I24
I32
tp1902
g2
s(I50
I16
tp1903
g6
s(I16
I-16
tp1904
g6
s(I53
I5
tp1905
(I0
F63251.0
tp1906
s(I13
I-34
tp1907
g6
s(I37
I42
tp1908
g2
s(I21
I44
tp1909
g2
s(I4
I20
tp1910
g2
s(I-1
I6
tp1911
g6
s(I45
I-11
tp1912
(I0
F118434.0
tp1913
s(I8
I47
tp1914
g23
s(I7
I9
tp1915
g6
s(I23
I-28
tp1916
(F-70248.0
F119747.0
tp1917
s(I42
I-24
tp1918
(I0
F89901.0
tp1919
s(I36
I20
tp1920
g88
s(I20
I-7
tp1921
g6
s(I16
I31
tp1922
g2
s(I17
I-22
tp1923
g6
s(I54
I44
tp1924
g2
s(I59
I21
tp1925
g6
s(I30
I-41
tp1926
g6
s(I41
I41
tp1927
g88
s(I22
I5
tp1928
g6
s(I41
I48
tp1929
g31
s(I44
I18
tp1930
g6
s(I5
I-17
tp1931
g6
s(I41
I-15
tp1932
g6
s(I18
I-38
tp1933
g2
s(I19
I-32
tp1934
(F-9499.0
F-70000.0
tp1935
s(I54
I-4
tp1936
g6
s(I17
I48
tp1937
g2
s(I33
I-23
tp1938
g6
s(I29
I-26
tp1939
g6
s(I48
I-26
tp1940
g6
s(I62
I15
tp1941
g6
s(I45
I45
tp1942
(F0.0
F-30000.0
tp1943
s(I39
I-20
tp1944
g6
s(I13
I4
tp1945
g2
s(I52
I23
tp1946
g6
s(I0
I7
tp1947
(I0
F71949.0
tp1948
s(I38
I20
tp1949
(I0
F68967.0
tp1950
s(I26
I14
tp1951
g88
s(I63
I-9
tp1952
g6
s(I-2
I2
tp1953
g6
s(I46
I-12
tp1954
g6
s(I63
I20
tp1955
g6
s(I60
I-6
tp1956
(F115676.0
F-21245.0
tp1957
s(I58
I2
tp1958
g6
s(I50
I11
tp1959
g6
s(I56
I30
tp1960
g178
s(I53
I14
tp1961
(I0
F85808.0
tp1962
s(I13
I-41
tp1963
g6
s(I32
I-11
tp1964
g6
s(I48
I31
tp1965
g88
s(I4
I19
tp1966
(F-91000.0
F-91000.0
tp1967
s(I45
I-18
tp1968
(I0
F0.0
tp1969
s(I26
I32
tp1970
g2
s(I7
I6
tp1971
g88
s(I59
I-11
tp1972
g6
s(I42
I-45
tp1973
g6
s(I54
I32
tp1974
g6
s(I33
I50
tp1975
g140
s(I56
I-18
tp1976
g6
s(I17
I-29
tp1977
g6
s(I54
I39
tp1978
g88
s(I19
I3
tp1979
(I0
F108548.0
tp1980
s(I30
I-34
tp1981
(I0
F129157.0
tp1982
s(I41
I18
tp1983
g114
s(I22
I28
tp1984
g23
s(I44
I9
tp1985
g6
s(I61
I-9
tp1986
g6
s(I5
I-24
tp1987
g6
s(I22
I-34
tp1988
g6
s(I41
I-6
tp1989
g6
s(I19
I-23
tp1990
(F-7688.0
F-3440.0
tp1991
s(I54
I-9
tp1992
g6
s(I17
I41
tp1993
g2
s(I32
I22
tp1994
g31
s(I37
I38
tp1995
g2
s(I59
I25
tp1996
g114
s(I42
I51
tp1997
g23
s(I8
I-22
tp1998
(F-64249.0
F-66919.0
tp1999
s(I45
I38
tp2000
(F1648.0
F-32453.0
tp2001
s(I4
I-9
tp2002
(F-99757.0
F-99757.0
tp2003
s(I49
I35
tp2004
(F5432.0
F-1682.0
tp2005
s(I64
I12
tp2006
(F119353.0
F-91000.0
tp2007
s(I34
I-31
tp2008
(F91904.0
F-70000.0
tp2009
s(I35
I16
tp2010
g6
s(I39
I-13
tp2011
g6
s(I60
I-24
tp2012
(I0
F21000.0
tp2013
s(I38
I15
tp2014
(I0
F163755.0
tp2015
s(I11
I-26
tp2016
g2
s(I63
I-4
tp2017
g6
s(I59
I-27
tp2018
g6
s(I63
I29
tp2019
g6
s(I60
I-15
tp2020
(F135617.0
F-70000.0
tp2021
s(I50
I2
tp2022
g6
s(I29
I-23
tp2023
g6
s(I35
I-31
tp2024
g6
s(I24
I-1
tp2025
g6
s(I31
I-28
tp2026
g6
s(I10
I-11
tp2027
g6
s(I45
I-25
tp2028
(F0.0
F-91000.0
tp2029
s(I26
I43
tp2030
g2
s(I24
I-13
tp2031
g6
s(I23
I-6
tp2032
(I0
F121119.0
tp2033
s(I46
I46
tp2034
g2
s(I59
I-24
tp2035
g6
s(I63
I1
tp2036
g6
s(I56
I-11
tp2037
g6
s(I17
I-28
tp2038
g6
s(I19
I8
tp2039
(I0
F160790.0
tp2040
s(I51
I-24
tp2041
g6
s(I47
I-19
tp2042
g6
s(I22
I23
tp2043
g2
s(I9
I-44
tp2044
g2
s(I44
I0
tp2045
g6
s(I9
I34
tp2046
g2
s(I41
I-29
tp2047
g6
s(I19
I-18
tp2048
(F94796.0
F-4035.0
tp2049
s(I34
I20
tp2050
(F6846.0
F-35196.0
tp2051
s(I17
I34
tp2052
g2
s(I56
I3
tp2053
g6
s(I37
I47
tp2054
g23
s(I29
I-8
tp2055
g6
s(I23
I12
tp2056
(I0
F160927.0
tp2057
s(I45
I31
tp2058
(F-50019.0
F-12195.0
tp2059
s(I10
I3
tp2060
g178
s(I4
I-2
tp2061
(F-99757.0
F76290.0
tp2062
s(I39
I-30
tp2063
g6
s(I25
I-38
tp2064
g6
s(I53
I-17
tp2065
(I0
F0.0
tp2066
s(I38
I6
tp2067
(I0
F70017.0
tp2068
s(I25
I19
tp2069
g2
s(I63
I26
tp2070
g114
s(I31
I8
tp2071
g114
s(I61
I-2
tp2072
g6
s(I38
I-7
tp2073
(I0
F76221.0
tp2074
s(I14
I47
tp2075
g2
s(I53
I16
tp2076
(F-1943.0
F-5400.0
tp2077
s(I1
I10
tp2078
g6
s(I54
I16
tp2079
g6
s(I50
I49
tp2080
g23
s(I49
I-37
tp2081
(I0
F0.0
tp2082
s(I4
I1
tp2083
(F77256.0
F-21442.0
tp2084
s(I10
I-4
tp2085
g6
s(I45
I-32
tp2086
(I0
F0.0
tp2087
s(I26
I50
tp2088
g2
s(I23
I-13
tp2089
(F77993.0
F-21548.0
tp2090
s(I46
I49
tp2091
g88
s(I29
I7
tp2092
g6
s(I51
I38
tp2093
g178
s(I16
I4
tp2094
g88
s(I17
I-35
tp2095
g6
s(I34
I-43
tp2096
(F0.0
F-70000.0
tp2097
s(I46
I17
tp2098
g6
s(I41
I28
tp2099
g178
s(I22
I46
tp2100
g2
s(I5
I46
tp2101
g23
s(I9
I-35
tp2102
g6
s(I9
I43
tp2103
g23
s(I5
I-38
tp2104
g6
s(I22
I-24
tp2105
g6
s(I41
I-28
tp2106
g6
s(I52
I-14
tp2107
g6
s(I19
I-9
tp2108
(I0
F25661.0
tp2109
s(I34
I37
tp2110
(I0
F0.0
tp2111
s(I36
I-16
tp2112
g6
s(I56
I10
tp2113
g6
s(I37
I40
tp2114
g2
s(I29
I-15
tp2115
g6
s(I42
I37
tp2116
(I0
F-1593.0
tp2117
s(I23
I5
tp2118
(I0
F68942.0
tp2119
s(I62
I32
tp2120
g6
s(I45
I24
tp2121
(F0.0
F-31895.0
tp2122
s(I10
I10
tp2123
g88
s(I4
I-27
tp2124
g88
s(I39
I-24
tp2125
g6
s(I46
I10
tp2126
g6
s(I13
I47
tp2127
g2
s(I53
I-24
tp2128
(I0
F0.0
tp2129
s(I14
I-37
tp2130
g6
s(I6
I43
tp2131
g23
s(I50
I-3
tp2132
g6
s(I33
I-13
tp2133
g31
s(I28
I-18
tp2134
g6
s(I25
I20
tp2135
g2
s(I25
I-11
tp2136
g6
s(I11
I25
tp2137
g2
s(I38
I-16
tp2138
(I0
F40585.0
tp2139
s(I52
I3
tp2140
g6
s(I53
I25
tp2141
(F303.0
F-1719.0
tp2142
s(I41
I47
tp2143
g31
s(I1
I3
tp2144
g6
s(I39
I26
tp2145
g178
s(I4
I8
tp2146
(I0
F72470.0
tp2147
s(I10
I-25
tp2148
g6
s(I51
I45
tp2149
g2
s(I59
I-26
tp2150
g6
s(I58
I28
tp2151
g114
s(I17
I-42
tp2152
g2
s(I54
I8
tp2153
g6
s(I19
I22
tp2154
g2
s(I12
I-35
tp2155
g6
s(I41
I5
tp2156
g6
s(I22
I33
tp2157
g23
s(I5
I23
tp2158
g2
s(I44
I-10
tp2159
g6
s(I9
I44
tp2160
g23
s(I38
I8
tp2161
(I0
F112558.0
tp2162
s(I22
I-29
tp2163
g6
s(I41
I-19
tp2164
g6
s(I30
I33
tp2165
g2
s(I34
I-18
tp2166
(I0
F57853.0
tp2167
s(I19
I-4
tp2168
g114
s(I56
I17
tp2169
g6
s(I55
I43
tp2170
g88
s(I59
I44
tp2171
g2
s(I42
I44
tp2172
(F0.0
F-59505.0
tp2173
s(I23
I2
tp2174
(I0
F46828.0
tp2175
s(I7
I-7
tp2176
g6
s(I26
I-33
tp2177
g6
s(I45
I17
tp2178
(I0
F53957.0
tp2179
s(I4
I-20
tp2180
(F-99757.0
F-99757.0
tp2181
s(I61
I27
tp2182
g6
s(I40
I-14
tp2183
g6
s(I25
I5
tp2184
g6
s(I53
I-15
tp2185
(I0
F28482.0
tp2186
s(I41
I7
tp2187
g6
s(I50
I-12
tp2188
g6
s(I60
I19
tp2189
(F1551.0
F-49420.0
tp2190
s(I31
I-9
tp2191
g6
s(I60
I5
tp2192
(F54090.0
F-70000.0
tp2193
s(I25
I29
tp2194
g2
s(I25
I-1
tp2195
g6
s(I38
I45
tp2196
(I0
F-652.0
tp2197
s(I58
I42
tp2198
g114
s(I38
I-21
tp2199
(I0
F0.0
tp2200
s(I63
I16
tp2201
g6
s(I48
I38
tp2202
g31
s(I1
I4
tp2203
g6
s(I13
I-5
tp2204
g6
s(I39
I19
tp2205
g6
s(I10
I-18
tp2206
g6
s(I62
I-16
tp2207
g6
s(I60
I26
tp2208
(F90565.0
F-19376.0
tp2209
s(I48
I25
tp2210
g114
s(I29
I25
tp2211
g23
s(I51
I52
tp2212
g2
s(I54
I-31
tp2213
g178
s(I34
I-25
tp2214
(I0
F0.0
tp2215
s(I8
I16
tp2216
g2
s(I41
I14
tp2217
g114
s(I23
I-1
tp2218
(I0
F103078.0
tp2219
s(I26
I-26
tp2220
g6
s(I44
I-19
tp2221
g6
s(I27
I47
tp2222
(F-49000.0
F-79000.0
tp2223
s(I41
I-17
tp2224
g6
s(I47
I32
tp2225
g88
s(I30
I40
tp2226
(F0.0
F-6635.0
tp2227
s(I60
I-10
tp2228
(F115626.0
F-60132.0
tp2229
s(I17
I21
tp2230
g2
s(I16
I-32
tp2231
g6
s(I55
I32
tp2232
g178
s(I20
I6
tp2233
g178
s(I59
I37
tp2234
g114
s(I42
I23
tp2235
(I0
F73397.0
tp2236
s(I23
I27
tp2237
(I0
F130413.0
tp2238
s(I7
I-10
tp2239
g6
s(I64
I40
tp2240
(F0.0
F-70000.0
tp2241
s(I45
I10
tp2242
(I0
F80686.0
tp2243
s(I39
I24
tp2244
g88
s(I4
I-21
tp2245
(F-99433.0
F-99757.0
tp2246
s(I61
I-19
tp2247
g6
s(I32
I1
tp2248
g6
s(I13
I33
tp2249
g2
s(I53
I-6
tp2250
(I0
F112690.0
tp2251
s(I18
I44
tp2252
g2
s(I50
I32
tp2253
g31
s(I50
I-17
tp2254
g6
s(I28
I-4
tp2255
g6
s(I48
I-21
tp2256
g6
s(I8
I-10
tp2257
(F-62727.0
F-64015.0
tp2258
s(I-3
I12
tp2259
g6
s(I50
I38
tp2260
g88
s(I16
I-9
tp2261
g6
s(I58
I-16
tp2262
g6
s(I36
I21
tp2263
g88
s(I13
I-12
tp2264
g6
s(I25
I37
tp2265
g23
s(I39
I8
tp2266
g6
s(I20
I32
tp2267
g140
s(I10
I-23
tp2268
g6
s(I62
I0
tp2269
g6
s(I62
I-5
tp2270
g6
s(I48
I16
tp2271
g88
s(I59
I-12
tp2272
g6
s(I36
I19
tp2273
g88
s(I60
I24
tp2274
(F-3019.0
F-42822.0
tp2275
s(I15
I35
tp2276
g2
s(I34
I-1
tp2277
(I0
F73045.0
tp2278
s(I19
I36
tp2279
(F0.0
F-30000.0
tp2280
s(I22
I51
tp2281
g140
s(I5
I25
tp2282
g2
s(I9
I-16
tp2283
g6
s(I33
I19
tp2284
g178
s(I27
I36
tp2285
(I0
F96418.0
tp2286
s(I22
I-3
tp2287
g6
s(I47
I41
tp2288
g31
s(I58
I-25
tp2289
g6
s(I52
I36
tp2290
g88
s(I16
I-25
tp2291
g6
s(I20
I13
tp2292
g2
s(I33
I-30
tp2293
g6
s(I29
I-36
tp2294
g6
s(I42
I30
tp2295
(F-4042.0
F-25900.0
tp2296
s(I23
I16
tp2297
(I0
F50883.0
tp2298
s(I7
I-17
tp2299
g6
s(I8
I-41
tp2300
g2
s(I45
I3
tp2301
(I0
F94950.0
tp2302
s(I10
I39
tp2303
g23
s(I21
I-36
tp2304
g6
s(I32
I24
tp2305
g114
s(I31
I48
tp2306
g2
s(I35
I53
tp2307
g23
s(I18
I39
tp2308
g2
s(I57
I0
tp2309
(I0
F94040.0
tp2310
s(I38
I34
tp2311
(F-3773.0
F-70000.0
tp2312
s(I26
I9
tp2313
g88
s(I60
I27
tp2314
(F125231.0
F-70000.0
tp2315
s(I8
I17
tp2316
(I0
F106197.0
tp2317
s(I11
I12
tp2318
g2
s(I3
I-5
tp2319
g6
s(I38
I-27
tp2320
(I0
F0.0
tp2321
s(I16
I10
tp2322
g2
s(I36
I28
tp2323
g114
s(I13
I-19
tp2324
g6
s(I39
I1
tp2325
g6
s(I11
I43
tp2326
g140
s(I62
I-30
tp2327
g6
s(I38
I25
tp2328
(I0
F32614.0
tp2329
s(I48
I23
tp2330
g6
s(I37
I-12
tp2331
g6
s(I15
I40
tp2332
(F0.0
F-30000.0
tp2333
s(I15
I-25
tp2334
(F-17386.0
F-16448.0
tp2335
s(I34
I-7
tp2336
(F96835.0
F-70000.0
tp2337
s(I19
I45
tp2338
(I0
F0.0
tp2339
s(I57
I13
tp2340
(F7067.0
F-63779.0
tp2341
s(I16
I1
tp2342
g6
s(I35
I5
tp2343
g6
s(I5
I2
tp2344
g6
s(I9
I-7
tp2345
g6
s(I44
I-29
tp2346
g6
s(I51
I3
tp2347
g6
s(I48
I19
tp2348
g6
s(I22
I-12
tp2349
g6
s(I30
I26
tp2350
(I0
F0.0
tp2351
s(I46
I12
tp2352
g6
s(I52
I35
tp2353
g31
s(I17
I7
tp2354
g31
s(I56
I38
tp2355
g2
s(I30
I19
tp2356
(I0
F123552.0
tp2357
s(I20
I20
tp2358
g88
s(I46
I-19
tp2359
g6
s(I23
I41
tp2360
(F-25541.0
F-70000.0
tp2361
s(I7
I-28
tp2362
g2
s(I8
I-34
tp2363
g114
s(I43
I-6
tp2364
g6
s(I10
I46
tp2365
g23
s(I21
I-27
tp2366
g6
s(I32
I31
tp2367
g88
s(I34
I-8
tp2368
(I0
F93328.0
tp2369
s(I3
I29
tp2370
g2
s(I9
I-41
tp2371
g2
s(I57
I9
tp2372
(F52249.0
F-67932.0
tp2373
s(I38
I37
tp2374
(I0
F854.0
tp2375
s(I60
I18
tp2376
(F110189.0
F-53146.0
tp2377
s(I43
I42
tp2378
g88
s(I64
I-32
tp2379
(I0
F-70000.0
tp2380
s(I63
I39
tp2381
g31
s(I11
I5
tp2382
g2
s(I3
I-32
tp2383
g6
s(I19
I-2
tp2384
(I0
F48240.0
tp2385
s(I14
I18
tp2386
g2
s(I36
I27
tp2387
g114
s(I13
I-26
tp2388
g6
s(I49
I-8
tp2389
(I0
F112742.0
tp2390
s(I57
I27
tp2391
(F-9628.0
F-70000.0
tp2392
s(I61
I13
tp2393
g6
s(I26
I17
tp2394
g114
s(I48
I14
tp2395
g6
s(I12
I28
tp2396
(I0
F0.0
tp2397
s(I51
I11
tp2398
g6
s(I26
I-14
tp2399
g6
s(I54
I20
tp2400
g6
s(I2
I6
tp2401
g6
s(I48
I-33
tp2402
g114
s(I9
I-30
tp2403
g6
s(I44
I-38
tp2404
g6
s(I27
I50
tp2405
(F-99999.0
F-99999.0
tp2406
s(I58
I-23
tp2407
g6
s(I52
I42
tp2408
g31
s(I62
I20
tp2409
g6
s(I55
I15
tp2410
g114
s(I20
I19
tp2411
g88
s(I64
I-2
tp2412
(F98828.0
F-69985.0
tp2413
s(I11
I-40
tp2414
g6
s(I42
I0
tp2415
(I0
F97330.0
tp2416
s(I23
I38
tp2417
(I0
F0.0
tp2418
s(I7
I-35
tp2419
g6
s(I43
I-13
tp2420
g6
s(I10
I41
tp2421
g23
s(I32
I-6
tp2422
g6
s(I21
I-18
tp2423
g6
s(I40
I-18
tp2424
g6
s(I31
I38
tp2425
g2
s(I56
I0
tp2426
g6
s(I35
I35
tp2427
g88
s(I57
I18
tp2428
(F2798.0
F-3978.0
tp2429
s(I60
I41
tp2430
(I0
F-70000.0
tp2431
s(I43
I35
tp2432
g114
s(I64
I-25
tp2433
(F80651.0
F-70000.0
tp2434
s(I6
I-1
tp2435
g6
s(I63
I44
tp2436
g6
s(I3
I-23
tp2437
g6
s(I55
I-17
tp2438
g114
s(I45
I-7
tp2439
(I0
F57732.0
tp2440
s(I36
I2
tp2441
g6
s(I29
I-5
tp2442
g6
s(I49
I-15
tp2443
g6
s(I57
I-4
tp2444
(I0
F63576.0
tp2445
s(I27
I-32
tp2446
(I0
F-83.0
tp2447
s(I26
I24
tp2448
g23
s(I24
I-3
tp2449
g6
s(I12
I27
tp2450
(I0
F-16807.0
tp2451
s(I51
I16
tp2452
g6
s(I56
I37
tp2453
g2
s(I15
I-11
tp2454
(F44228.0
F-4464.0
tp2455
s(I2
I1
tp2456
g6
s(I12
I-8
tp2457
(F93013.0
F-21063.0
tp2458
s(I24
I46
tp2459
g2
s(I9
I-21
tp2460
g6
s(I29
I11
tp2461
g6
s(I27
I11
tp2462
(I0
F115838.0
tp2463
s(I61
I-24
tp2464
g6
s(I49
I26
tp2465
(F-3352.0
F-69939.0
tp2466
s(I30
I4
tp2467
(I0
F43933.0
tp2468
s(I52
I49
tp2469
g2
s(I-2
I-1
tp2470
g6
s(I55
I4
tp2471
g6
s(I3
I34
tp2472
g2
s(I26
I6
tp2473
g6
s(I42
I11
tp2474
(I0
F79854.0
tp2475
s(I48
I2
tp2476
g6
s(I7
I-38
tp2477
g6
s(I42
I24
tp2478
(F66293.0
F-42373.0
tp2479
s(I43
I-24
tp2480
g6
s(I28
I42
tp2481
g2
s(I21
I-9
tp2482
g6
s(I32
I45
tp2483
g2
s(I31
I47
tp2484
g2
s(I18
I-6
tp2485
g6
s(I35
I40
tp2486
g2
s(I49
I-22
tp2487
g6
s(I31
I-19
tp2488
g6
s(I21
I5
tp2489
g6
s(I60
I32
tp2490
(F105065.0
F-63700.0
tp2491
s(I43
I24
tp2492
g6
s(I64
I-1
tp2493
(F111717.0
F-70000.0
tp2494
s(I6
I-15
tp2495
g6
s(I3
I-18
tp2496
g6
s(I33
I2
tp2497
g6
s(I14
I28
tp2498
g2
s(I61
I31
tp2499
g6
s(I52
I-7
tp2500
g6
s(I39
I44
tp2501
g2
s(I53
I-30
tp2502
g6
s(I27
I-7
tp2503
(F122283.0
F-58595.0
tp2504
s(I12
I18
tp2505
g2
s(I37
I-17
tp2506
g6
s(I15
I7
tp2507
(I0
F153409.0
tp2508
s(I15
I-14
tp2509
(F105190.0
F-70000.0
tp2510
s(I32
I30
tp2511
g2
s(I51
I-32
tp2512
g6
s(I12
I-9
tp2513
(F46804.0
F-15543.0
tp2514
s(I43
I47
tp2515
g2
s(I9
I-20
tp2516
g6
s(I8
I-30
tp2517
(F-39864.0
F-65067.0
tp2518
s(I27
I0
tp2519
(I0
F110552.0
tp2520
s(I42
I-20
tp2521
(I0
F31290.0
tp2522
s(I49
I19
tp2523
(I0
F82133.0
tp2524
s(I58
I-5
tp2525
g6
s(I34
I-23
tp2526
(F107884.0
F-70000.0
tp2527
s(I33
I-5
tp2528
g6
s(I20
I33
tp2529
g23
s(I37
I-16
tp2530
g6
s(I11
I-42
tp2531
g2
s(I16
I32
tp2532
g2
s(I23
I52
tp2533
g2
s(I6
I20
tp2534
g2
s(I64
I11
tp2535
(F79114.0
F-70000.0
tp2536
s(I43
I-31
tp2537
g6
s(I28
I33
tp2538
g2
s(I21
I-16
tp2539
g6
s(I40
I-36
tp2540
g6
s(I31
I20
tp2541
g2
s(I63
I-8
tp2542
g6
s(I18
I-11
tp2543
g6
s(I53
I39
tp2544
(F-37128.0
F-70000.0
tp2545
s(I18
I11
tp2546
g2
s(I41
I8
tp2547
g6
s(I57
I28
tp2548
(F3398.0
F-1738.0
tp2549
s(I40
I36
tp2550
g2
s(I21
I14
tp2551
g2
s(I31
I-4
tp2552
g6
s(I28
I-33
tp2553
g6
s(I43
I17
tp2554
g6
s(I8
I13
tp2555
(I0
F23076.0
tp2556
s(I6
I-24
tp2557
g6
s(I42
I21
tp2558
(F36464.0
F-2224.0
tp2559
s(I38
I36
tp2560
g2
s(I11
I40
tp2561
g23
s(I20
I-33
tp2562
g6
s(I55
I-3
tp2563
g6
s(I37
I7
tp2564
g6
s(I36
I48
tp2565
g2
s(I40
I-23
tp2566
g6
s(I37
I22
tp2567
g88
s(I58
I5
tp2568
g6
s(I39
I37
tp2569
g2
s(I29
I-20
tp2570
g6
s(I35
I-34
tp2571
g6
s(I27
I-2
tp2572
(I0
F0.0
tp2573
s(I44
I48
tp2574
g2
s(I9
I18
tp2575
g2
s(I60
I17
tp2576
(I0
F-70000.0
tp2577
s(I48
I51
tp2578
g23
s(I37
I-24
tp2579
g6
s(I54
I-8
tp2580
g6
s(I21
I-31
tp2581
g6
s(I15
I-5
tp2582
(I0
F144987.0
tp2583
s(I51
I-23
tp2584
g6
s(I49
I44
tp2585
(F0.0
F-30000.0
tp2586
s(I12
I-18
tp2587
(F-26891.0
F-30642.0
tp2588
s(I47
I44
tp2589
g2
s(I40
I19
tp2590
g6
s(I49
I20
tp2591
(I0
F30083.0
tp2592
s(I52
I7
tp2593
g6
s(I14
I-32
tp2594
g6
s(I33
I-4
tp2595
g6
s(I20
I40
tp2596
g2
s(I25
I35
tp2597
g2
s(I6
I15
tp2598
g2
s(I64
I2
tp2599
(F19673.0
F-68633.0
tp2600
s(I43
I-26
tp2601
g6
s(I35
I-21
tp2602
g6
s(I61
I-26
tp2603
g6
s(I57
I-21
tp2604
(I0
F0.0
tp2605
s(I18
I-20
tp2606
g6
s(I53
I32
tp2607
(I0
F-12168.0
tp2608
s(I18
I2
tp2609
g6
s(I57
I37
tp2610
(F-27155.0
F-70000.0
tp2611
s(I40
I43
tp2612
g2
s(I21
I23
tp2613
g31
s(I64
I36
tp2614
(F73403.0
F-91000.0
tp2615
s(I32
I-33
tp2616
g6
s(I6
I-29
tp2617
g6
s(I6
I-37
tp2618
g6
s(I42
I-11
tp2619
(I0
F57834.0
tp2620
s(I3
I-36
tp2621
g6
s(I20
I-26
tp2622
g6
s(I55
I-6
tp2623
g6
s(I56
I22
tp2624
g6
s(I30
I15
tp2625
(I0
F111391.0
tp2626
s(I30
I-8
tp2627
(I0
F66232.0
tp2628
s(I49
I-28
tp2629
(I0
F0.0
tp2630
s(I27
I-9
tp2631
(I0
F80468.0
tp2632
s(I44
I47
tp2633
g88
s(I9
I27
tp2634
g2
s(I48
I42
tp2635
g88
s(I27
I20
tp2636
(I0
F14505.0
tp2637
s(I36
I26
tp2638
g31
s(I-1
I3
tp2639
g6
s(I61
I6
tp2640
g6
s(I15
I21
tp2641
(I0
F111997.0
tp2642
s(I34
I26
tp2643
(F-28846.0
F-48672.0
tp2644
s(I51
I-18
tp2645
g6
s(I12
I-27
tp2646
(F-29916.0
F-36925.0
tp2647
s(I24
I3
tp2648
g6
s(I26
I-28
tp2649
g6
s(I27
I30
tp2650
(F-83953.0
F-76122.0
tp2651
s(I49
I13
tp2652
(F14350.0
F-23675.0
tp2653
s(I43
I-9
tp2654
g6
s(I36
I-2
tp2655
g6
s(I49
I-7
tp2656
(I0
F116996.0
tp2657
s(I14
I-21
tp2658
g6
s(I33
I-11
tp2659
g6
s(I55
I29
tp2660
g88
s(I13
I8
tp2661
g2
s(I25
I36
tp2662
g2
s(I6
I6
tp2663
g6
s(I8
I-31
tp2664
(F-54880.0
F-65067.0
tp2665
s(I29
I10
tp2666
g6
s(I32
I50
tp2667
g2
s(I57
I-20
tp2668
(I0
F0.0
tp2669
s(I18
I-25
tp2670
g6
s(I61
I14
tp2671
g6
s(I57
I46
tp2672
g114
s(I40
I18
tp2673
g6
s(I21
I16
tp2674
g2
s(I62
I-28
tp2675
g2
s(I10
I-41
tp2676
g6
s(I43
I15
tp2677
g6
s(I6
I-38
tp2678
g6
s(I23
I-40
tp2679
g6
s(I46
I8
tp2680
g6
s(I11
I38
tp2681
g2
s(I20
I-19
tp2682
g6
s(I55
I-13
tp2683
g6
s(I16
I43
tp2684
g2
s(I36
I38
tp2685
g31
s(I58
I23
tp2686
g6
s(I48
I13
tp2687
g6
s(I38
I-12
tp2688
(I0
F66612.0
tp2689
s(I44
I38
tp2690
g2
s(I5
I-13
tp2691
g6
s(I24
I-39
tp2692
g6
s(I-2
I10
tp2693
g6
s(I34
I12
tp2694
(I0
F163744.0
tp2695
s(I15
I18
tp2696
g2
s(I8
I-26
tp2697
(F-60605.0
F-65194.0
tp2698
s(I51
I-9
tp2699
g6
s(I48
I-14
tp2700
g6
s(I26
I-17
tp2701
g6
s(I37
I-1
tp2702
g6
s(I49
I6
tp2703
(I0
F188863.0
tp2704
s(I52
I21
tp2705
g6
s(I27
I-17
tp2706
(F102581.0
F-278.0
tp2707
s(I14
I-14
tp2708
g6
s(I11
I-3
tp2709
g6
s(I57
I-30
tp2710
(I0
F0.0
tp2711
s(I8
I-24
tp2712
(F-64530.0
F-62496.0
tp2713
s(I43
I-44
tp2714
g6
s(I60
I-18
tp2715
(F107749.0
F-6779.0
tp2716
s(I50
I31
tp2717
g31
s(I54
I23
tp2718
g6
s(I18
I-34
tp2719
g6
s(I53
I50
tp2720
g2
s(I60
I-2
tp2721
(F146262.0
F-30628.0
tp2722
s(I32
I-31
tp2723
g6
s(I-1
I11
tp2724
g31
s(I10
I-34
tp2725
g6
s(I43
I4
tp2726
g6
s(I6
I-35
tp2727
g6
s(I28
I-30
tp2728
g2
s(I46
I19
tp2729
g114
s(I29
I41
tp2730
g2
s(I20
I-12
tp2731
g178
s(I33
I46
tp2732
g2
s(I34
I13
tp2733
(I0
F18623.0
tp2734
s(I52
I-35
tp2735
g6
s(I30
I-22
tp2736
(I0
F58257.0
tp2737
s(I31
I-22
tp2738
g6
s(I48
I-34
tp2739
g6
s(I44
I29
tp2740
g88
s(I9
I5
tp2741
g6
s(I5
I-4
tp2742
g6
s(I28
I23
tp2743
g2
s(I55
I8
tp2744
g6
s(I54
I-29
tp2745
g6
s(I15
I-42
tp2746
(F0.0
F-70000.0
tp2747
s(I51
I-4
tp2748
g6
s(I37
I0
tp2749
g6
s(I6
I-17
tp2750
g6
s(I28
I26
tp2751
g23
s(I48
I-23
tp2752
g6
s(I35
I-12
tp2753
g6
s(I26
I-10
tp2754
g6
s(I39
I-7
tp2755
g6
s(I13
I17
tp2756
g2
s(I52
I28
tp2757
g2
s(I0
I10
tp2758
(I0
F73743.0
tp2759
s(I14
I-11
tp2760
g6
s(I50
I40
tp2761
g31
s(I50
I-33
tp2762
g6
s(I64
I-11
tp2763
(F101415.0
F-70000.0
tp2764
s(I11
I-14
tp2765
g114
s(I24
I11
tp2766
g178
s(I8
I-17
tp2767
(F-67339.0
F-52764.0
tp2768
s(I3
I-9
tp2769
g6
s(I60
I-27
tp2770
g6
s(I40
I9
tp2771
g6
s(I50
I22
tp2772
g6
s(I57
I-2
tp2773
(I0
F101944.0
tp2774
s(I18
I-39
tp2775
g6
s(I30
I28
tp2776
(F-41593.0
F-55680.0
tp2777
s(I32
I-29
tp2778
g6
s(I32
I15
tp2779
g88
s(I40
I0
tp2780
g6
s(I10
I-39
tp2781
g2
s(I45
I-5
tp2782
(F70268.0
F-91000.0
tp2783
s(I8
I41
tp2784
(I0
F-30000.0
tp2785
s(I23
I-18
tp2786
(I0
F19923.0
tp2787
s(I42
I-18
tp2788
(I0
F4654.0
tp2789
s(I29
I34
tp2790
g2
s(I61
I-16
tp2791
g6
s(I20
I-13
tp2792
g6
s(I33
I39
tp2793
g2
s(I56
I-31
tp2794
g6
s(I17
I-16
tp2795
g6
s(I54
I42
tp2796
g88
s(I59
I18
tp2797
g6
s(I58
I25
tp2798
g88
s(I41
I39
tp2799
g2
s(I22
I3
tp2800
g6
s(I44
I20
tp2801
g2
s(I9
I14
tp2802
g2
s(I5
I-27
tp2803
g6
s(I12
I45
tp2804
g2
s(I19
I-38
tp2805
(I0
F0.0
tp2806
s(I54
I-6
tp2807
g6
s(I15
I-33
tp2808
(F-10261.0
F-15103.0
tp2809
s(I37
I51
tp2810
g140
s(I33
I-22
tp2811
g6
s(I59
I10
tp2812
g6
s(I48
I-32
tp2813
g114
s(I62
I5
tp2814
g6
s(I53
I47
tp2815
(F-21849.0
F-93700.0
tp2816
s(I39
I-10
tp2817
g6
s(I52
I27
tp2818
g6
s(I36
I-26
tp2819
g6
s(I0
I1
tp2820
(F65605.0
F-70000.0
tp2821
s(I14
I-4
tp2822
g6
s(I38
I18
tp2823
(F13807.0
F-19055.0
tp2824
s(I3
I12
tp2825
g6
s(I62
I-11
tp2826
g6
s(I42
I3
tp2827
(I0
F50038.0
tp2828
s(I28
I28
tp2829
g88
s(I30
I-15
tp2830
(I0
F105850.0
tp2831
s(I50
I17
tp2832
g6
s(I16
I18
tp2833
g31
s(I35
I-14
tp2834
g6
s(I39
I-1
tp2835
g6
s(I13
I-35
tp2836
g6
s(I40
I7
tp2837
g6
s(I48
I30
tp2838
g6
s(I4
I21
tp2839
(F-70000.0
F-91000.0
tp2840
s(I14
I7
tp2841
g2
s(I45
I-12
tp2842
(I0
F54245.0
tp2843
s(I26
I38
tp2844
g2
s(I7
I8
tp2845
g6
s(I29
I20
tp2846
g114
s(I46
I29
tp2847
g31
s(I60
I0
tp2848
(F93340.0
F-65268.0
tp2849
s(I20
I-6
tp2850
g6
s(I16
I16
tp2851
g88
s(I27
I-1
tp2852
(I0
F64325.0
tp2853
s(I54
I45
tp2854
g114
s(I60
I13
tp2855
(F51884.0
F-70000.0
tp2856
s(I58
I32
tp2857
g114
s(I41
I40
tp2858
g88
s(I22
I26
tp2859
g2
s(I33
I7
tp2860
g6
s(I44
I19
tp2861
g6
s(I53
I27
tp2862
(F4521.0
F-39075.0
tp2863
s(I5
I-18
tp2864
g6
s(I14
I38
tp2865
g2
s(I41
I-16
tp2866
g6
s(I12
I36
tp2867
(I0
F-16807.0
tp2868
s(I19
I-29
tp2869
(F-2597.0
F-3147.0
tp2870
s(I54
I-3
tp2871
g6
s(I32
I21
tp2872
g31
s(I29
I-27
tp2873
g6
s(I48
I-25
tp2874
g6
s(I31
I39
tp2875
g23
s(I62
I12
tp2876
g6
s(I45
I44
tp2877
(F0.0
F-70000.0
tp2878
s(I10
I30
tp2879
g2
s(I49
I41
tp2880
(F-42596.0
F-69996.0
tp2881
s(I34
I-32
tp2882
g2
s(I41
I0
tp2883
g6
s(I28
I15
tp2884
g178
s(I38
I21
tp2885
(I0
F113692.0
tp2886
s(I11
I-32
tp2887
g6
s(I63
I-10
tp2888
g6
s(I25
I-31
tp2889
g6
s(I60
I-5
tp2890
(F57398.0
F-54076.0
tp2891
s(I30
I1
tp2892
(I0
F87743.0
tp2893
s(I50
I8
tp2894
g6
s(I10
I50
tp2895
g140
s(I49
I43
tp2896
(F-57690.0
F-52254.0
tp2897
s(I63
I-19
tp2898
g6
s(I53
I13
tp2899
(I0
F17284.0
tp2900
s(I50
I28
tp2901
g6
s(I13
I-42
tp2902
g6
s(I40
I14
tp2903
g6
s(I21
I52
tp2904
g140
s(I57
I19
tp2905
(I0
F-1816.0
tp2906
s(I31
I2
tp2907
g6
s(I26
I33
tp2908
g2
s(I7
I1
tp2909
g6
s(I23
I-4
tp2910
(I0
F127463.0
tp2911
s(I46
I36
tp2912
g31
s(I33
I49
tp2913
g2
s(I56
I-17
tp2914
g6
s(I17
I-30
tp2915
g6
s(I54
I36
tp2916
g88
s(I19
I2
tp2917
(I0
F113653.0
tp2918
s(I37
I31
tp2919
g2
s(I30
I-33
tp2920
(I0
F0.0
tp2921
s(I41
I17
tp2922
g2
s(I44
I10
tp2923
g6
s(I22
I-33
tp2924
g6
s(I41
I-7
tp2925
g6
s(I46
I32
tp2926
g178
s(I64
I17
tp2927
(F50261.0
F-70000.0
tp2928
s(I19
I-24
tp2929
(F-70472.0
F94170.0
tp2930
s(I54
I-12
tp2931
g6
s(I17
I40
tp2932
g23
s(I55
I-7
tp2933
g6
s(I37
I37
tp2934
g88
s(I59
I24
tp2935
g114
s(I42
I48
tp2936
(F0.0
F-30000.0
tp2937
s(I55
I-28
tp2938
g6
s(I45
I37
tp2939
(I0
F18106.0
tp2940
s(I10
I25
tp2941
g2
s(I47
I47
tp2942
g88
s(I49
I34
tp2943
(F28112.0
F-34300.0
tp2944
s(I63
I45
tp2945
g23
s(I53
I-27
tp2946
(I0
F0.0
tp2947
s(I38
I12
tp2948
(I0
F48363.0
tp2949
s(I54
I-17
tp2950
g6
s(I47
I8
tp2951
g6
s(I25
I9
tp2952
g88
s(I25
I-22
tp2953
g6
s(I60
I-14
tp2954
(F128594.0
F-48476.0
tp2955
s(I47
I-2
tp2956
g6
s(I50
I3
tp2957
g6
s(I14
I37
tp2958
g23
s(I35
I-32
tp2959
g6
s(I59
I5
tp2960
g6
s(I62
I43
tp2961
g31
s(I10
I-14
tp2962
g6
s(I45
I-26
tp2963
g6
s(I33
I10
tp2964
g114
s(I23
I-11
tp2965
(I0
F63410.0
tp2966
s(I46
I47
tp2967
g2
s(I29
I13
tp2968
g88
s(I51
I32
tp2969
g31
s(I16
I-27
tp2970
g31
s(I17
I-37
tp2971
g6
s(I19
I11
tp2972
(I0
F87582.0
tp2973
s(I8
I-13
tp2974
(F-67836.0
F-64130.0
tp2975
s(I46
I16
tp2976
g6
s(I47
I-20
tp2977
g6
s(I4
I13
tp2978
(I0
F103523.0
tp2979
s(I5
I36
tp2980
g2
s(I9
I-37
tp2981
g6
s(I44
I1
tp2982
g6
s(I9
I33
tp2983
g2
s(I22
I-42
tp2984
g6
s(I47
I20
tp2985
g114
s(I36
I1
tp2986
g6
s(I19
I-15
tp2987
(F67140.0
F-1574.0
tp2988
s(I34
I43
tp2989
(I0
F70000.0
tp2990
s(I17
I33
tp2991
g2
s(I16
I-4
tp2992
g6
s(I37
I46
tp2993
g2
s(I59
I17
tp2994
g6
s(I27
I-27
tp2995
(I0
F0.0
tp2996
s(I23
I15
tp2997
(I0
F42878.0
tp2998
s(I42
I16
tp2999
(F24939.0
F-32236.0
tp3000
s(I45
I30
tp3001
(F-289.0
F-62140.0
tp3002
s(I10
I0
tp3003
g6
s(I39
I-23
tp3004
g6
s(I53
I-18
tp3005
(I0
F111466.0
tp3006
s(I35
I30
tp3007
g2
s(I38
I7
tp3008
(I0
F81509.0
tp3009
s(I55
I26
tp3010
g6
s(I63
I-28
tp3011
g6
s(I17
I-2
tp3012
g6
s(I63
I5
tp3013
g6
s(I34
I-30
tp3014
g6
s(I38
I-2
tp3015
(I0
F56492.0
tp3016
s(I14
I44
tp3017
g2
s(I61
I7
tp3018
g6
s(I1
I9
tp3019
g6
s(I39
I28
tp3020
g31
s(I4
I2
tp3021
(F77740.0
F-70000.0
tp3022
s(I10
I-3
tp3023
g6
s(I26
I51
tp3024
g2
s(I37
I-36
tp3025
g6
s(I23
I-14
tp3026
(F54270.0
F-70000.0
tp3027
s(I29
I6
tp3028
g114
s(I30
I-21
tp3029
(I0
F96322.0
tp3030
s(I31
I4
tp3031
g114
s(I51
I41
tp3032
g88
s(I56
I-3
tp3033
g114
s(I17
I-36
tp3034
g6
s(I40
I-2
tp3035
g6
s(I47
I-11
tp3036
g6
s(I22
I47
tp3037
g2
s(I34
I-2
tp3038
(I0
F154098.0
tp3039
s(I9
I-36
tp3040
g6
s(I8
I-6
tp3041
(F-67197.0
F89401.0
tp3042
s(I5
I-39
tp3043
g2
s(I22
I-23
tp3044
g6
s(I41
I-21
tp3045
g6
s(I26
I-34
tp3046
g6
s(I19
I-10
tp3047
(F98901.0
F-42103.0
tp3048
s(I34
I34
tp3049
(F-5524.0
F-90786.0
tp3050
s(I17
I26
tp3051
g2
s(I40
I29
tp3052
g2
s(I16
I-13
tp3053
g6
s(I55
I45
tp3054
g2
s(I29
I-16
tp3055
g6
s(I42
I34
tp3056
(F-91000.0
F-52751.0
tp3057
s(I53
I-33
tp3058
(I0
F-70000.0
tp3059
s(I62
I33
tp3060
g6
s(I45
I23
tp3061
(F-17083.0
F-90144.0
tp3062
s(I10
I11
tp3063
g2
s(I4
I-26
tp3064
(F-99757.0
F-99757.0
tp3065
s(I39
I-31
tp3066
g88
s(I21
I-7
tp3067
g6
s(I25
I6
tp3068
g6
s(I35
I1
tp3069
g6
s(I26
I-15
tp3070
g6
s(I14
I-40
tp3071
g6
s(I50
I-6
tp3072
g6
s(I31
I-12
tp3073
g6
s(I60
I15
tp3074
(F106844.0
F-48371.0
tp3075
s(I31
I29
tp3076
g2
s(I25
I-12
tp3077
g6
s(I38
I44
tp3078
(F-34288.0
F-70000.0
tp3079
s(I53
I-16
tp3080
(I0
F0.0
tp3081
s(I38
I-15
tp3082
(I0
F42831.0
tp3083
s(I63
I17
tp3084
g6
s(I24
I39
tp3085
g2
s(I35
I-18
tp3086
g6
s(I1
I2
tp3087
g6
s(I60
I-11
tp3088
(F101945.0
F-70000.0
tp3089
s(I59
I-13
tp3090
g6
s(I39
I21
tp3091
g6
s(I4
I9
tp3092
(I0
F26064.0
tp3093
s(I10
I-28
tp3094
g6
s(I45
I-21
tp3095
(F28482.0
F-91000.0
tp3096
s(I60
I25
tp3097
(F95612.0
F-70000.0
tp3098
s(I59
I-7
tp3099
g6
s(I37
I-40
tp3100
g6
s(I34
I4
tp3101
(I0
F84124.0
tp3102
s(I54
I9
tp3103
g6
s(I12
I-34
tp3104
g6
s(I41
I4
tp3105
g6
s(I22
I38
tp3106
g2
s(I5
I22
tp3107
g2
s(I8
I10
tp3108
(I0
F83045.0
tp3109
s(I44
I-9
tp3110
g6
s(I27
I41
tp3111
(I0
F0.0
tp3112
s(I22
I-32
tp3113
g6
s(I47
I26
tp3114
g6
s(I30
I38
tp3115
(F-148.0
F-9473.0
tp3116
s(I17
I19
tp3117
g31
s(I56
I-2
tp3118
g6
s(I16
I-22
tp3119
g6
s(I55
I42
tp3120
g178
s(I59
I47
tp3121
g2
s(I42
I45
tp3122
(F-51000.0
F-42551.0
tp3123
s(I35
I-3
tp3124
g6
s(I7
I-8
tp3125
g6
s(I62
I40
tp3126
g6
s(I45
I16
tp3127
(I0
F100259.0
tp3128
s(I37
I-25
tp3129
g114
s(I4
I-19
tp3130
(F-51000.0
F-51000.0
tp3131
s(I27
I8
tp3132
(I0
F73581.0
tp3133
s(I40
I-13
tp3134
g6
s(I3
I-7
tp3135
g6
s(I56
I-24
tp3136
g114
s(I43
I22
tp3137
g6
s(I35
I6
tp3138
g6
s(I18
I50
tp3139
g2
s(I50
I35
tp3140
g88
s(I38
I49
tp3141
(I0
F-30000.0
tp3142
s(I28
I-26
tp3143
g2
s(I29
I15
tp3144
g178
s(I48
I-22
tp3145
g6
s(I25
I-3
tp3146
g6
s(I48
I5
tp3147
g6
s(I49
I27
tp3148
(F-49031.0
F-13590.0
tp3149
s(I38
I-24
tp3150
(I0
F51107.0
tp3151
s(I56
I14
tp3152
g6
s(I58
I-13
tp3153
g6
s(I13
I-6
tp3154
g6
s(I46
I1
tp3155
g6
s(I39
I18
tp3156
g6
s(I10
I-17
tp3157
g6
s(I26
I-9
tp3158
g6
s(I26
I5
tp3159
g6
s(I24
I-30
tp3160
g6
s(I59
I-1
tp3161
g6
s(I36
I18
tp3162
g6
s(I15
I41
tp3163
g140
s(I15
I37
tp3164
(F-6300.0
F-30000.0
tp3165
s(I54
I0
tp3166
g6
s(I52
I-2
tp3167
g6
s(I47
I-5
tp3168
g6
s(I33
I28
tp3169
g2
s(I27
I46
tp3170
(I0
F0.0
tp3171
s(I22
I-5
tp3172
g6
s(I47
I35
tp3173
g88
s(I30
I41
tp3174
(F-51000.0
F-48998.0
tp3175
s(I34
I52
tp3176
g23
s(I17
I20
tp3177
g2
s(I16
I-31
tp3178
g6
s(I55
I35
tp3179
g114
s(I20
I7
tp3180
g178
s(I59
I36
tp3181
g178
s(I42
I20
tp3182
(I0
F127871.0
tp3183
s(I23
I26
tp3184
(I0
F59439.0
tp3185
s(I7
I-15
tp3186
g6
s(I64
I41
tp3187
(F62246.0
F-70000.0
tp3188
s(I45
I9
tp3189
(I0
F117404.0
tp3190
s(I32
I2
tp3191
g6
s(I35
I15
tp3192
g6
s(I18
I45
tp3193
g2
s(I50
I45
tp3194
g2
s(I50
I-20
tp3195
g6
s(I59
I-9
tp3196
g6
s(I26
I8
tp3197
g6
s(I60
I29
tp3198
(F22219.0
F-70000.0
tp3199
s(I46
I-2
tp3200
g6
s(I59
I-6
tp3201
g6
s(I3
I-11
tp3202
g6
s(I38
I-29
tp3203
g6
s(I56
I-15
tp3204
g6
s(I14
I1
tp3205
g178
s(I36
I22
tp3206
g178
s(I13
I-13
tp3207
g6
s(I39
I11
tp3208
g6
s(I13
I43
tp3209
g23
s(I61
I39
tp3210
g178
s(I62
I-8
tp3211
g6
s(I38
I24
tp3212
(F-21773.0
F-40833.0
tp3213
s(I24
I-23
tp3214
g6
s(I29
I17
tp3215
g88
s(I63
I2
tp3216
g6
s(I61
I17
tp3217
g6
s(I54
I27
tp3218
g6
s(I19
I39
tp3219
(I0
F0.0
tp3220
s(I22
I48
tp3221
g2
s(I9
I-9
tp3222
g6
s(I44
I-27
tp3223
g6
s(I37
I-10
tp3224
g6
s(I22
I-14
tp3225
g6
s(I47
I40
tp3226
g88
s(I30
I16
tp3227
(I0
F98327.0
tp3228
s(I52
I37
tp3229
g88
s(I16
I-40
tp3230
g6
s(I33
I-34
tp3231
g6
s(I20
I14
tp3232
g2
s(I34
I9
tp3233
(I0
F104002.0
tp3234
s(I7
I-18
tp3235
g6
s(I8
I-40
tp3236
(F0.0
F-48603.0
tp3237
s(I45
I2
tp3238
(I0
F182099.0
tp3239
s(I-1
I5
tp3240
g6
s(I21
I-37
tp3241
g6
s(I32
I25
tp3242
g2
s(I54
I31
tp3243
g88
s(I12
I0
tp3244
(F112565.0
F-1653.0
tp3245
s(I35
I52
tp3246
g2
s(I18
I36
tp3247
g23
s(I31
I-15
tp3248
g6
s(I38
I35
tp3249
(F-21000.0
F-91000.0
tp3250
s(I-2
I3
tp3251
g6
s(I28
I-12
tp3252
g6
s(I43
I52
tp3253
g2
s(I64
I-22
tp3254
(F65065.0
F-45847.0
tp3255
s(I28
I-22
tp3256
g178
s(I11
I15
tp3257
g2
s(I-3
I4
tp3258
g6
s(I35
I-17
tp3259
g6
s(I14
I8
tp3260
g2
s(I36
I29
tp3261
g2
s(I13
I-20
tp3262
g6
s(I39
I0
tp3263
g6
s(I57
I20
tp3264
(F110104.0
F-6682.0
tp3265
s(I57
I-3
tp3266
(I0
F67705.0
tp3267
s(I62
I-29
tp3268
g2
s(I24
I-16
tp3269
g6
s(I56
I-21
tp3270
g6
s(I37
I-13
tp3271
g6
s(I15
I43
tp3272
(F0.0
F-91000.0
tp3273
s(I15
I-26
tp3274
(F-14669.0
F-70000.0
tp3275
s(I34
I-10
tp3276
(I0
F101958.0
tp3277
s(I19
I44
tp3278
(F-21294.0
F-30000.0
tp3279
s(I37
I24
tp3280
g178
s(I48
I-39
tp3281
g6
s(I5
I1
tp3282
g6
s(I9
I-8
tp3283
g6
s(I22
I-11
tp3284
g6
s(I47
I49
tp3285
g2
s(I58
I-17
tp3286
g6
s(I52
I44
tp3287
g114
s(I17
I6
tp3288
g31
s(I56
I39
tp3289
g2
s(I55
I49
tp3290
g2
s(I20
I21
tp3291
g2
s(I64
I-3
tp3292
(F152108.0
F-70000.0
tp3293
s(I42
I6
tp3294
(I0
F150719.0
tp3295
s(I23
I40
tp3296
(F-26480.0
F-70000.0
tp3297
s(I7
I-25
tp3298
g6
s(I64
I39
tp3299
(I0
F10298.0
tp3300
s(I43
I-3
tp3301
g6
s(I10
I47
tp3302
g23
s(I40
I1
tp3303
g6
s(I21
I-28
tp3304
g6
s(I32
I16
tp3305
g88
s(I43
I-27
tp3306
g6
s(I29
I24
tp3307
g2
s(I31
I-1
tp3308
g88
s(I40
I48
tp3309
g2
s(I28
I-13
tp3310
g6
s(I43
I45
tp3311
g31
s(I8
I25
tp3312
(F0.0
F-34300.0
tp3313
s(I63
I38
tp3314
g6
s(I11
I4
tp3315
g178
s(I61
I-8
tp3316
g6
s(I14
I19
tp3317
g2
s(I36
I4
tp3318
g88
s(I13
I-27
tp3319
g6
s(I13
I-1
tp3320
g6
s(I61
I12
tp3321
g6
s(I26
I30
tp3322
g2
s(I24
I-9
tp3323
g6
s(I12
I29
tp3324
(I0
F0.0
tp3325
s(I51
I10
tp3326
g6
s(I56
I36
tp3327
g114
s(I15
I-17
tp3328
(F-14722.0
F43961.0
tp3329
s(I34
I-15
tp3330
(F99880.0
F-70000.0
tp3331
s(I2
I7
tp3332
g6
s(I46
I27
tp3333
g6
s(I57
I-11
tp3334
(I0
F81852.0
tp3335
s(I24
I40
tp3336
g2
s(I5
I10
tp3337
g6
s(I9
I-31
tp3338
g6
s(I58
I-10
tp3339
g6
s(I36
I-37
tp3340
g6
s(I36
I-1
tp3341
g6
s(I16
I-42
tp3342
g6
s(I33
I-24
tp3343
g6
s(I20
I28
tp3344
g2
s(I11
I-37
tp3345
g6
s(I42
I1
tp3346
(I0
F94116.0
tp3347
s(I23
I33
tp3348
(F0.0
F-47677.0
tp3349
s(I6
I27
tp3350
g2
s(I42
I27
tp3351
(I0
F26379.0
tp3352
s(I43
I-14
tp3353
g6
s(I28
I44
tp3354
g2
s(I21
I-19
tp3355
g6
s(I40
I-17
tp3356
g6
s(I31
I33
tp3357
g31
s(I3
I-1
tp3358
g6
s(I35
I34
tp3359
g88
s(I18
I22
tp3360
g2
s(I27
I13
tp3361
(I0
F103024.0
tp3362
s(I31
I-25
tp3363
g6
s(I55
I19
tp3364
g6
s(I60
I42
tp3365
g2
s(I43
I34
tp3366
g2
s(I8
I0
tp3367
(F80008.0
F-34300.0
tp3368
s(I25
I-39
tp3369
g6
s(I28
I-31
tp3370
g6
s(I3
I-24
tp3371
g6
s(I55
I-18
tp3372
g6
s(I3
I25
tp3373
g2
s(I27
I-26
tp3374
(I0
F0.0
tp3375
s(I36
I3
tp3376
g6
s(I49
I-16
tp3377
(I0
F89901.0
tp3378
s(I35
I21
tp3379
g178
s(I27
I-29
tp3380
(F119755.0
F-1260.0
tp3381
s(I26
I25
tp3382
g88
s(I24
I-2
tp3383
g6
s(I13
I39
tp3384
g140
s(I12
I20
tp3385
(I0
F123065.0
tp3386
s(I51
I19
tp3387
g88
s(I15
I-12
tp3388
(I0
F72179.0
tp3389
s(I12
I-7
tp3390
(F66790.0
F-28474.0
tp3391
s(I24
I47
tp3392
g2
s(I9
I-22
tp3393
g6
s(I64
I25
tp3394
(F121319.0
F-35393.0
tp3395
s(I27
I10
tp3396
(I0
F114474.0
tp3397
s(I39
I-33
tp3398
g6
s(I58
I-15
tp3399
g6
s(I47
I11
tp3400
g6
s(I24
I-20
tp3401
g6
s(I52
I50
tp3402
g2
s(I33
I-31
tp3403
g6
s(I57
I14
tp3404
(F1012.0
F-307.0
tp3405
s(I46
I-4
tp3406
g6
s(I58
I-28
tp3407
g6
s(I29
I31
tp3408
g31
s(I51
I22
tp3409
g6
s(I28
I43
tp3410
g2
s(I21
I-10
tp3411
g6
s(I32
I46
tp3412
g2
s(I31
I46
tp3413
g140
s(I25
I15
tp3414
g31
s(I18
I-5
tp3415
g6
s(I35
I43
tp3416
g140
s(I18
I17
tp3417
g88
s(I31
I-20
tp3418
g6
s(I21
I4
tp3419
g6
s(I31
I-3
tp3420
g6
s(I60
I33
tp3421
(F7242.0
F-70000.0
tp3422
s(I43
I27
tp3423
g88
s(I8
I7
tp3424
(I0
F31989.0
tp3425
s(I6
I-10
tp3426
g6
s(I25
I-2
tp3427
g6
s(I33
I1
tp3428
g88
s(I14
I29
tp3429
g2
s(I52
I-6
tp3430
g6
s(I37
I23
tp3431
g178
s(I39
I47
tp3432
g31
s(I53
I41
tp3433
(F-51000.0
F-41332.0
tp3434
s(I27
I-8
tp3435
(I0
F90529.0
tp3436
s(I6
I-2
tp3437
g6
s(I52
I-10
tp3438
g6
s(I27
I42
tp3439
(F-1323.0
F-30000.0
tp3440
s(I37
I-18
tp3441
g6
s(I54
I-5
tp3442
g6
s(I15
I6
tp3443
(I0
F63043.0
tp3444
s(I15
I-3
tp3445
(F113468.0
F-11447.0
tp3446
s(I37
I21
tp3447
g88
s(I8
I22
tp3448
g2
s(I61
I-27
tp3449
g2
s(I32
I-22
tp3450
g2
s(I49
I18
tp3451
(F-6389.0
F-45049.0
tp3452
s(I58
I-8
tp3453
g6
s(I44
I-8
tp3454
g6
s(I33
I-6
tp3455
g6
s(I20
I34
tp3456
g2
s(I53
I20
tp3457
(F-18.0
F-2370.0
tp3458
s(I6
I21
tp3459
g2
s(I8
I-12
tp3460
(F-65706.0
F-28291.0
tp3461
s(I43
I-32
tp3462
g6
s(I28
I34
tp3463
g2
s(I33
I9
tp3464
g2
s(I61
I-25
tp3465
g6
s(I32
I37
tp3466
g2
s(I31
I23
tp3467
g114
s(I18
I-14
tp3468
g6
s(I53
I38
tp3469
g178
s(I18
I8
tp3470
g31
s(I34
I7
tp3471
(I0
F86923.0
tp3472
s(I31
I-43
tp3473
g6
s(I40
I37
tp3474
g2
s(I21
I13
tp3475
g114
s(I43
I16
tp3476
g114
s(I64
I-10
tp3477
(F93736.0
F-70000.0
tp3478
s(I6
I-23
tp3479
g6
s(I49
I28
tp3480
(F1073.0
F-64131.0
tp3481
s(I20
I-40
tp3482
g6
s(I33
I26
tp3483
g2
s(I56
I21
tp3484
g6
s(I30
I14
tp3485
(I0
F114594.0
tp3486
s(I36
I49
tp3487
g2
s(I30
I-10
tp3488
(I0
F64400.0
tp3489
s(I39
I36
tp3490
g2
s(I61
I23
tp3491
g6
s(I44
I49
tp3492
g2
s(I9
I17
tp3493
g2
s(I48
I52
tp3494
g23
s(I36
I25
tp3495
g31
s(I30
I34
tp3496
(I0
F41605.0
tp3497
s(I57
I35
tp3498
(F-1317.0
F-48945.0
tp3499
s(I15
I15
tp3500
(I0
F26829.0
tp3501
s(I15
I-6
tp3502
(F130739.0
F-70000.0
tp3503
s(I27
I29
tp3504
(I0
F34985.0
tp3505
s(I37
I30
tp3506
g2
s(I12
I-17
tp3507
(F-33446.0
F-28404.0
tp3508
s(I30
I52
tp3509
g140
s(I49
I25
tp3510
(F-18533.0
F-39075.0
tp3511
s(I33
I21
tp3512
g88
s(I61
I-1
tp3513
g6
s(I28
I-21
tp3514
g6
s(I49
I11
tp3515
(I0
F97640.0
tp3516
s(I19
I42
tp3517
(F-43797.0
F-98088.0
tp3518
s(I52
I0
tp3519
g6
s(I46
I23
tp3520
g114
s(I14
I-31
tp3521
g6
s(I55
I21
tp3522
g6
s(I20
I41
tp3523
g2
s(I3
I19
tp3524
g2
s(I25
I34
tp3525
g2
s(I6
I12
tp3526
g2
s(I64
I3
tp3527
(F51959.0
F-70000.0
tp3528
s(I43
I-39
tp3529
g6
s(I21
I-8
tp3530
g6
s(I31
I28
tp3531
g2
s(I18
I-19
tp3532
g6
s(I35
I-39
tp3533
g6
s(I18
I3
tp3534
g6
s(I57
I36
tp3535
(I0
F-815.0
tp3536
s(I40
I44
tp3537
g2
s(I21
I22
tp3538
g2
s(I26
I19
tp3539
g2
s(I43
I9
tp3540
g6
s(I6
I-32
tp3541
g6
s(I46
I6
tp3542
g6
s(I11
I32
tp3543
g2
s(I3
I-33
tp3544
g6
s(I20
I-25
tp3545
g6
s(I55
I-11
tp3546
g6
s(I63
I-30
tp3547
g6
s(I32
I14
tp3548
g6
s(I58
I13
tp3549
g6
s(I41
I51
tp3550
g2
s(I47
I-26
tp3551
g6
s(I61
I16
tp3552
g6
s(I44
I40
tp3553
g2
s(I9
I26
tp3554
g2
s(I48
I43
tp3555
g88
s(I12
I1
tp3556
(I0
F66135.0
tp3557
s(I-1
I0
tp3558
g6
s(I15
I20
tp3559
(I0
F22323.0
tp3560
s(I61
I42
tp3561
g140
s(I51
I-15
tp3562
g6
s(I12
I-26
tp3563
(F-32891.0
F-34387.0
tp3564
s(I48
I-4
tp3565
g6
s(I50
I-11
tp3566
g6
s(I26
I-27
tp3567
g6
s(I27
I17
tp3568
(I0
F56458.0
tp3569
s(I49
I12
tp3570
(I0
F77912.0
tp3571
s(I62
I10
tp3572
g6
s(I13
I30
tp3573
g2
s(I52
I15
tp3574
g6
s(I47
I-18
tp3575
g6
s(I55
I18
tp3576
g6
s(I20
I48
tp3577
g2
s(I3
I24
tp3578
g2
s(I48
I33
tp3579
g88
s(I31
I21
tp3580
g31
s(I6
I7
tp3581
g6
s(I64
I26
tp3582
(F94291.0
F-70000.0
tp3583
s(I43
I-34
tp3584
g6
s(I28
I48
tp3585
g2
s(I34
I-14
tp3586
(I0
F86591.0
tp3587
s(I18
I-28
tp3588
g6
s(I53
I40
tp3589
g178
s(I57
I45
tp3590
(F-36572.0
F-70000.0
tp3591
s(I32
I-21
tp3592
g6
s(I21
I31
tp3593
g2
s(I43
I14
tp3594
g6
s(I33
I-7
tp3595
g6
s(I7
I28
tp3596
g2
s(I23
I-37
tp3597
(F-6360.0
F-16035.0
tp3598
s(I42
I-3
tp3599
(I0
F71624.0
tp3600
s(I29
I47
tp3601
g140
s(I20
I-18
tp3602
g6
s(I55
I-14
tp3603
g6
s(I16
I44
tp3604
g2
s(I36
I39
tp3605
g2
s(I36
I12
tp3606
g2
s(I58
I20
tp3607
g6
s(I41
I52
tp3608
g2
s(I57
I29
tp3609
(F17289.0
F-70000.0
tp3610
s(I61
I41
tp3611
g31
s(I44
I39
tp3612
g2
s(I9
I3
tp3613
g6
s(I5
I-14
tp3614
g6
s(I40
I35
tp3615
g2
s(I42
I-15
tp3616
(I0
F49896.0
tp3617
s(I-2
I11
tp3618
g88
s(I54
I-23
tp3619
g6
s(I21
I15
tp3620
g2
s(I51
I-10
tp3621
g6
s(I37
I1
tp3622
g6
s(I42
I-14
tp3623
(I0
F117925.0
tp3624
s(I48
I-13
tp3625
g6
s(I53
I3
tp3626
(I0
F88784.0
tp3627
s(I62
I24
tp3628
g6
s(I27
I22
tp3629
(I0
F0.0
tp3630
s(I49
I5
tp3631
(I0
F101947.0
tp3632
s(I51
I7
tp3633
g6
s(I52
I22
tp3634
g6
s(I14
I-13
tp3635
g6
s(I38
I-17
tp3636
(I0
F0.0
tp3637
s(I3
I1
tp3638
g6
s(I11
I-4
tp3639
g6
s(I25
I44
tp3640
g23
s(I24
I10
tp3641
g178
s(I8
I-23
tp3642
(F-66919.0
F-65993.0
tp3643
s(I43
I-41
tp3644
g6
s(I60
I-17
tp3645
(F103823.0
F-70000.0
tp3646
s(I32
I-16
tp3647
g6
s(I38
I-40
tp3648
g6
s(I57
I-12
tp3649
(I0
F78254.0
tp3650
s(I16
I-2
tp3651
g6
s(I18
I-33
tp3652
g6
s(I53
I49
tp3653
(F-91000.0
F-18539.0
tp3654
s(I40
I26
tp3655
g178
s(I21
I24
tp3656
g2
s(I4
I32
tp3657
(F-70000.0
F-91000.0
tp3658
s(I10
I-33
tp3659
g6
s(I43
I7
tp3660
g6
s(I8
I35
tp3661
g2
s(I42
I-28
tp3662
(I0
F111466.0
tp3663
s(I24
I37
tp3664
g2
s(I27
I23
tp3665
g2
s(I20
I-11
tp3666
g6
s(I33
I45
tp3667
g140
s(I45
I-13
tp3668
(I0
F3801.0
tp3669
s(I17
I-1
tp3670
g6
s(I52
I-34
tp3671
g6
s(I59
I19
tp3672
g6
s(I58
I31
tp3673
g114
s(I22
I9
tp3674
g178
s(I61
I34
tp3675
g23
s(I55
I-30
tp3676
g178
s(I9
I4
tp3677
g6
s(I5
I-5
tp3678
g6
s(I19
I-44
tp3679
(F-91000.0
F-91000.0
tp3680
s(I54
I-32
tp3681
g6
s(I37
I9
tp3682
g6
s(I26
I-4
tp3683
g6
s(I33
I-21
tp3684
g2
s(I24
I18
tp3685
g2
s(I32
I-2
tp3686
g6
s(I62
I3
tp3687
g6
s(I39
I-8
tp3688
g6
s(I13
I16
tp3689
g2
s(I57
I17
tp3690
(F893.0
F-40088.0
tp3691
s(I52
I29
tp3692
g114
s(I36
I-27
tp3693
g6
s(I0
I11
tp3694
g114
s(I14
I-6
tp3695
g6
s(I50
I-36
tp3696
g6
s(I3
I6
tp3697
g178
s(I11
I-11
tp3698
g6
s(I42
I2
tp3699
(I0
F56497.0
tp3700
s(I60
I-26
tp3701
(F64182.0
F-22707.0
tp3702
s(I30
I-16
tp3703
(I0
F46707.0
tp3704
s(I50
I23
tp3705
g114
s(I31
I11
tp3706
g6
s(I39
I42
tp3707
g2
s(I6
I36
tp3708
g2
s(I32
I-7
tp3709
g6
s(I21
I33
tp3710
g23
s(I56
I46
tp3711
g2
s(I45
I-6
tp3712
(I0
F96557.0
tp3713
s(I48
I-5
tp3714
g6
s(I23
I-23
tp3715
(F105125.0
F-1789.0
tp3716
s(I42
I-17
tp3717
(I0
F0.0
tp3718
s(I29
I33
tp3719
g2
s(I20
I-4
tp3720
g6
s(I33
I38
tp3721
g2
s(I56
I-30
tp3722
g6
s(I17
I-9
tp3723
g6
s(I54
I43
tp3724
g2
s(I58
I38
tp3725
g178
s(I41
I38
tp3726
g2
s(I22
I0
tp3727
g6
s(I8
I-2
tp3728
(F96369.0
F-22268.0
tp3729
s(I27
I-35
tp3730
g6
s(I44
I21
tp3731
g114
s(I9
I13
tp3732
g2
s(I5
I-28
tp3733
g6
s(I56
I13
tp3734
g31
s(I12
I46
tp3735
(F-99031.0
F-98790.0
tp3736
s(I25
I45
tp3737
g2
s(I34
I31
tp3738
g2
s(I15
I-34
tp3739
(F-10968.0
F-70000.0
tp3740
s(I32
I20
tp3741
g88
s(I37
I50
tp3742
g31
s(I59
I13
tp3743
g6
s(I24
I25
tp3744
g2
s(I26
I-1
tp3745
g6
s(I48
I0
tp3746
g6
s(I14
I-2
tp3747
g6
s(I39
I-15
tp3748
g6
s(I34
I-29
tp3749
(I0
F0.0
tp3750
s(I0
I2
tp3751
(F91715.0
F-70000.0
tp3752
s(I14
I-3
tp3753
g6
s(I28
I14
tp3754
g178
s(I38
I19
tp3755
(I0
F79818.0
tp3756
s(I11
I-22
tp3757
g31
s(I35
I33
tp3758
g2
s(I51
I31
tp3759
g6
s(I60
I-3
tp3760
(F189383.0
F-70000.0
tp3761
s(I50
I14
tp3762
g6
s(I63
I-26
tp3763
g6
s(I35
I-11
tp3764
g6
s(I13
I-36
tp3765
g6
s(I40
I8
tp3766
g88
s(I21
I42
tp3767
g2
s(I57
I12
tp3768
(I0
F81388.0
tp3769
s(I31
I3
tp3770
g6
s(I26
I39
tp3771
g2
s(I7
I11
tp3772
g178
s(I23
I-26
tp3773
(I0
F-202.0
tp3774
s(I46
I34
tp3775
g88
s(I32
I-45
tp3776
g6
s(I20
I-5
tp3777
g6
s(I25
I-15
tp3778
g6
s(I16
I17
tp3779
g2
s(I17
I-24
tp3780
g6
s(I54
I34
tp3781
g114
s(I37
I16
tp3782
g6
s(I58
I33
tp3783
g114
s(I47
I-39
tp3784
g6
s(I22
I27
tp3785
g2
s(I5
I49
tp3786
g23
s(I44
I12
tp3787
g88
s(I5
I-19
tp3788
g6
s(I61
I20
tp3789
g6
s(I47
I1
tp3790
g6
s(I12
I37
tp3791
(I0
F0.0
tp3792
s(I14
I0
tp3793
g6
s(I19
I-30
tp3794
(F0.0
F-4035.0
tp3795
s(I34
I22
tp3796
(I0
F32542.0
tp3797
s(I8
I29
tp3798
(I0
F0.0
tp3799
s(I29
I-28
tp3800
g6
s(I26
I46
tp3801
g2
s(I62
I13
tp3802
g6
s(I45
I43
tp3803
(F-77344.0
F-96516.0
tp3804
s(I10
I31
tp3805
g2
s(I40
I25
tp3806
g88
s(I49
I40
tp3807
(I0
F0.0
tp3808
s(I14
I50
tp3809
g23
s(I13
I2
tp3810
g6
s(I21
I25
tp3811
g2
s(I28
I-27
tp3812
g6
s(I11
I-29
tp3813
g6
s(I25
I7
tp3814
g6
s(I63
I22
tp3815
g6
s(I60
I-12
tp3816
(F57730.0
F-27492.0
tp3817
s(I50
I9
tp3818
g6
s(I14
I35
tp3819
g2
s(I42
I31
tp3820
(F-66135.0
F153366.0
tp3821
s(I26
I37
tp3822
g2
s(I59
I2
tp3823
g6
s(I32
I-9
tp3824
g6
s(I63
I-18
tp3825
g6
s(I4
I29
tp3826
(F-91000.0
F-91000.0
tp3827
s(I45
I-20
tp3828
(I0
F89901.0
tp3829
s(I33
I11
tp3830
g6
s(I7
I0
tp3831
g6
s(I46
I37
tp3832
g2
s(I29
I51
tp3833
g2
s(I50
I33
tp3834
g88
s(I33
I48
tp3835
g2
s(I56
I-16
tp3836
g6
s(I17
I-31
tp3837
g6
s(I54
I37
tp3838
g178
s(I19
I5
tp3839
(I0
F149530.0
tp3840
s(I50
I42
tp3841
g114
s(I42
I-25
tp3842
g6
s(I41
I16
tp3843
g6
s(I39
I34
tp3844
g2
s(I24
I33
tp3845
g2
s(I44
I11
tp3846
g6
s(I22
I-36
tp3847
g6
s(I47
I14
tp3848
g6
s(I30
I50
tp3849
g2
s(I19
I-21
tp3850
(F56525.0
F-8133.0
tp3851
s(I34
I17
tp3852
(I0
F118027.0
tp3853
s(I17
I47
tp3854
g2
s(I37
I36
tp3855
g88
s(I39
I52
tp3856
g23
s(I42
I49
tp3857
(I0
F-49000.0
tp3858
s(I46
I-25
tp3859
g6
s(I45
I36
tp3860
(F-18239.0
F-21642.0
tp3861
s(I4
I-15
tp3862
(F-93700.0
F-97300.0
tp3863
s(I49
I33
tp3864
(F-9317.0
F-24444.0
tp3865
s(I35
I-23
tp3866
g6
s(I53
I-28
tp3867
g114
s(I38
I13
tp3868
g6
s(I55
I27
tp3869
g6
s(I54
I-14
tp3870
g114
s(I63
I-2
tp3871
g6
s(I64
I44
tp3872
(I0
F-30000.0
tp3873
s(I25
I-23
tp3874
g6
s(I60
I-13
tp3875
(F73377.0
F-70000.0
tp3876
s(I50
I0
tp3877
g6
s(I14
I42
tp3878
g2
s(I47
I21
tp3879
g6
s(I27
I-18
tp3880
(F-258.0
F2844.0
tp3881
s(I26
I26
tp3882
g88
s(I10
I-13
tp3883
g6
s(I26
I41
tp3884
g2
s(I23
I-12
tp3885
(F92169.0
F-70000.0
tp3886
s(I42
I-40
tp3887
(I0
F0.0
tp3888
s(I59
I-22
tp3889
g6
s(I58
I30
tp3890
g6
s(I51
I35
tp3891
g88
s(I56
I-9
tp3892
g6
s(I30
I-29
tp3893
(I0
F0.0
tp3894
s(I40
I-3
tp3895
g6
s(I19
I10
tp3896
(I0
F158841.0
tp3897
s(I41
I25
tp3898
g88
s(I22
I21
tp3899
g88
s(I22
I8
tp3900
g178
s(I61
I-20
tp3901
g6
s(I44
I2
tp3902
g6
s(I38
I10
tp3903
(I0
F41046.0
tp3904
s(I22
I-41
tp3905
g6
s(I47
I23
tp3906
g2
s(I19
I-16
tp3907
(F-458.0
F-70000.0
tp3908
s(I34
I40
tp3909
(F-5812.0
F-70000.0
tp3910
s(I17
I32
tp3911
g2
s(I61
I35
tp3912
g6
s(I56
I5
tp3913
g6
s(I37
I45
tp3914
g2
s(I59
I16
tp3915
g6
s(I46
I-36
tp3916
g6
s(I23
I14
tp3917
(I0
F162093.0
tp3918
s(I51
I-16
tp3919
g6
s(I57
I-22
tp3920
g6
s(I10
I1
tp3921
g6
s(I4
I-8
tp3922
(F-99978.0
F-99978.0
tp3923
s(I37
I-14
tp3924
g6
s(I63
I-15
tp3925
g6
s(I46
I9
tp3926
g6
s(I53
I-19
tp3927
g88
s(I41
I1
tp3928
g6
s(I38
I4
tp3929
(I0
F116493.0
tp3930
s(I31
I-11
tp3931
g6
s(I11
I-36
tp3932
g6
s(I25
I17
tp3933
g114
s(I63
I4
tp3934
g6
s(I50
I-21
tp3935
g6
s(I28
I6
tp3936
g6
s(I52
I25
tp3937
g114
s(I25
I-32
tp3938
g6
s(I14
I45
tp3939
g2
s(I36
I10
tp3940
g6
s(I35
I-24
tp3941
g6
s(I1
I8
tp3942
g114
s(I28
I20
tp3943
g114
s(I39
I31
tp3944
g114
s(I4
I3
tp3945
(F93203.0
F-91000.0
tp3946
s(I10
I-6
tp3947
g6
s(I26
I48
tp3948
g2
s(I28
I-8
tp3949
g6
s(I29
I5
tp3950
g2
s(I12
I-1
tp3951
(I0
F12854.0
tp3952
s(I51
I40
tp3953
g88
s(I16
I6
tp3954
g31
s(I41
I-2
tp3955
g6
s(I19
I19
tp3956
(I0
F21151.0
tp3957
s(I47
I-12
tp3958
g6
s(I22
I44
tp3959
g2
s(I24
I44
tp3960
g2
s(I44
I-7
tp3961
g6
s(I22
I-18
tp3962
g6
s(I41
I-22
tp3963
g6
s(I19
I-7
tp3964
(I0
F101994.0
tp3965
s(I34
I35
tp3966
(F-31266.0
F-51104.0
tp3967
s(I17
I25
tp3968
g2
s(I22
I-1
tp3969
g114
s(I56
I12
tp3970
g88
s(I55
I44
tp3971
g2
s(I37
I10
tp3972
g114
s(I33
I-12
tp3973
g6
s(I59
I41
tp3974
g114
s(I46
I-41
tp3975
g6
s(I53
I12
tp3976
(F121112.0
F-3750.0
tp3977
s(I62
I38
tp3978
g6
s(I45
I22
tp3979
(I0
F153424.0
tp3980
s(I4
I-25
tp3981
(F-99757.0
F-99927.0
tp3982
s(I61
I-17
tp3983
g6
s(I13
I45
tp3984
g2
s(I7
I35
tp3985
g2
s(I44
I4
tp3986
g6
s(I35
I0
tp3987
g6
s(I14
I-39
tp3988
g6
s(I41
I-13
tp3989
g6
s(I50
I-5
tp3990
g6
s(I13
I-43
tp3991
g2
s(I63
I-20
tp3992
g6
s(I24
I17
tp3993
g2
s(I63
I13
tp3994
g6
s(I40
I15
tp3995
g6
s(I38
I-10
tp3996
(I0
F89835.0
tp3997
s(I14
I52
tp3998
g2
s(I30
I6
tp3999
(I0
F103080.0
tp4000
s(I1
I1
tp4001
g6
s(I46
I0
tp4002
g6
s(I39
I20
tp4003
g6
s(I25
I-8
tp4004
g6
s(I45
I-41
tp4005
(F0.0
F-91000.0
tp4006
s(I6
I35
tp4007
g2
s(I59
I-8
tp4008
g6
s(I36
I17
tp4009
g6
s(I51
I49
tp4010
g2
s(I54
I14
tp4011
g6
s(I19
I24
tp4012
(I0
F24029.0
tp4013
s(I12
I-33
tp4014
(F-33446.0
F-7145.0
tp4015
s(I47
I-3
tp4016
g6
s(I22
I39
tp4017
g2
s(I5
I21
tp4018
g2
s(I44
I-16
tp4019
g6
s(I27
I40
tp4020
(F-278.0
F-30000.0
tp4021
s(I33
I24
tp4022
g114
s(I22
I-31
tp4023
g6
s(I47
I37
tp4024
g31
s(I30
I39
tp4025
(I0
F37970.0
tp4026
s(I23
I6
tp4027
(I0
F112684.0
tp4028
s(I19
I-1
tp4029
(I0
F116858.0
tp4030
s(I17
I18
tp4031
g2
s(I33
I3
tp4032
g6
s(I16
I-21
tp4033
g6
s(I55
I37
tp4034
g88
s(I55
I10
tp4035
g6
s(I59
I46
tp4036
g2
s(I42
I42
tp4037
(F-23974.0
F-70000.0
tp4038
s(I23
I28
tp4039
(I0
F24673.0
tp4040
s(I7
I-5
tp4041
g6
s(I26
I-35
tp4042
g2
s(I45
I15
tp4043
(F-22257.0
F83412.0
tp4044
s(I4
I-18
tp4045
(F-99927.0
F-99927.0
tp4046
s(I32
I12
tp4047
g6
s(I13
I38
tp4048
g2
s(I53
I23
tp4049
(F133.0
F-24050.0
tp4050
s(I35
I9
tp4051
g6
s(I18
I51
tp4052
g2
s(I50
I-14
tp4053
g6
s(I28
I-25
tp4054
g6
s(I42
I13
tp4055
(I0
F0.0
tp4056
s(I25
I-4
tp4057
g6
s(I11
I16
tp4058
g2
s(I58
I15
tp4059
g6
s(I38
I-23
tp4060
(I0
F104300.0
tp4061
s(I16
I8
tp4062
g114
s(I39
I35
tp4063
g2
s(I41
I23
tp4064
g6
s(I13
I-7
tp4065
g6
s(I6
I32
tp4066
g2
s(I39
I13
tp4067
g6
s(I30
I29
tp4068
(F-85312.0
F109633.0
tp4069
s(I10
I-20
tp4070
g6
s(I26
I2
tp4071
g2
s(I38
I27
tp4072
(I0
F97607.0
tp4073
s(I24
I-29
tp4074
g6
s(I59
I-15
tp4075
g6
s(I30
I22
tp4076
(F11716.0
F-11416.0
tp4077
s(I3
I7
tp4078
g178
s(I15
I36
tp4079
(I0
F0.0
tp4080
s(I61
I18
tp4081
g6
s(I34
I-27
tp4082
(F82863.0
F-70000.0
tp4083
s(I28
I40
tp4084
g2
s(I12
I-42
tp4085
(F0.0
F-5042.0
tp4086
s(I47
I-6
tp4087
g6
s(I53
I-11
tp4088
g6
s(I5
I30
tp4089
g2
s(I58
I-2
tp4090
g6
s(I44
I-17
tp4091
g6
s(I27
I33
tp4092
g2
s(I22
I-8
tp4093
g6
s(I47
I34
tp4094
g178
s(I58
I40
tp4095
g114
s(I17
I11
tp4096
g2
s(I56
I26
tp4097
g6
s(I55
I34
tp4098
g6
s(I20
I0
tp4099
g6
s(I55
I-10
tp4100
g6
s(I59
I39
tp4101
g114
s(I46
I-31
tp4102
g6
s(I31
I45
tp4103
g2
s(I7
I-16
tp4104
g6
s(I64
I23
tp4105
g6
s(I45
I8
tp4106
(I0
F117870.0
tp4107
s(I57
I11
tp4108
(F34336.0
F-44612.0
tp4109
s(I32
I3
tp4110
g6
s(I54
I30
tp4111
g31
s(I35
I14
tp4112
g6
s(I18
I42
tp4113
g2
s(I28
I5
tp4114
g114
s(I50
I-19
tp4115
g6
s(I2
I-1
tp4116
g6
s(I28
I-1
tp4117
g6
s(I23
I-25
tp4118
(F93328.0
F-34300.0
tp4119
s(I28
I-23
tp4120
g6
s(I56
I-28
tp4121
g178
s(I61
I-23
tp4122
g6
s(I3
I-12
tp4123
g6
s(I38
I-32
tp4124
g6
s(I14
I6
tp4125
g114
s(I52
I-25
tp4126
g6
s(I13
I-14
tp4127
g6
s(I39
I10
tp4128
g6
s(I31
I-29
tp4129
g6
s(I57
I-1
tp4130
(I0
F187486.0
tp4131
s(I62
I-7
tp4132
g6
s(I41
I-8
tp4133
g6
s(I59
I-10
tp4134
g6
s(I25
I-6
tp4135
g6
s(I15
I45
tp4136
g2
s(I54
I24
tp4137
g6
s(I19
I38
tp4138
(F0.0
F-30000.0
tp4139
s(I47
I-28
tp4140
g6
s(I50
I-31
tp4141
g114
s(I5
I7
tp4142
g6
s(I9
I-10
tp4143
g6
s(I44
I-26
tp4144
g6
s(I27
I38
tp4145
(F-16182.0
F-91000.0
tp4146
s(I22
I-13
tp4147
g6
s(I47
I43
tp4148
g88
s(I58
I-27
tp4149
g178
s(I54
I-11
tp4150
g6
s(I17
I12
tp4151
g2
s(I16
I-39
tp4152
g6
s(I33
I-35
tp4153
g6
s(I20
I15
tp4154
g2
s(I64
I-4
tp4155
(F182538.0
F-70000.0
tp4156
s(I29
I-38
tp4157
g6
s(I46
I-24
tp4158
g6
s(I23
I18
tp4159
(I0
F0.0
tp4160
s(I24
I2
tp4161
g6
s(I8
I-39
tp4162
(F-44590.0
F-44590.0
tp4163
s(I45
I1
tp4164
(I0
F101941.0
tp4165
s(I4
I-28
tp4166
(F-79000.0
F-91000.0
tp4167
s(I32
I-8
tp4168
g6
s(I21
I-38
tp4169
g6
s(I32
I26
tp4170
g2
s(I27
I39
tp4171
(F-17131.0
F-79000.0
tp4172
s(I25
I-35
tp4173
g6
s(I58
I-29
tp4174
g6
s(I18
I37
tp4175
g23
s(I57
I6
tp4176
(I0
F-100.0
tp4177
s(I50
I-28
tp4178
g6
s(I60
I21
tp4179
(I0
F54107.0
tp4180
s(I62
I19
tp4181
g6
s(I64
I-21
tp4182
(F80649.0
F-70000.0
tp4183
s(I11
I14
tp4184
g2
s(I-3
I3
tp4185
g6
s(I59
I3
tp4186
g6
s(I8
I6
tp4187
g6
s(I14
I9
tp4188
g2
s(I52
I-18
tp4189
g6
s(I29
I-3
tp4190
g6
s(I39
I3
tp4191
g6
s(I55
I-22
tp4192
g6
s(I24
I-15
tp4193
g6
s(I14
I30
tp4194
g2
s(I51
I4
tp4195
g6
s(I56
I35
tp4196
g6
s(I15
I-31
tp4197
g6
s(I34
I-9
tp4198
(I0
F188944.0
tp4199
s(I19
I47
tp4200
g2
s(I24
I38
tp4201
g2
s(I46
I26
tp4202
g6
s(I24
I34
tp4203
g2
s(I5
I0
tp4204
g6
s(I33
I13
tp4205
g6
s(I16
I5
tp4206
g2
s(I47
I48
tp4207
g23
s(I30
I24
tp4208
(I0
F38020.0
tp4209
s(I52
I45
tp4210
g2
s(I17
I5
tp4211
g88
s(I56
I40
tp4212
g2
s(I51
I14
tp4213
g6
s(I20
I22
tp4214
g31
s(I46
I-13
tp4215
g6
s(I23
I43
tp4216
(I0
F0.0
tp4217
s(I7
I-26
tp4218
g6
s(I46
I-18
tp4219
g6
s(I51
I5
tp4220
g6
s(I10
I44
tp4221
g140
s(I4
I-37
tp4222
(F-91000.0
F-93700.0
tp4223
s(I21
I-29
tp4224
g6
s(I32
I17
tp4225
g88
s(I16
I25
tp4226
g2
s(I18
I28
tp4227
g2
s(I46
I28
tp4228
g6
s(I31
I-7
tp4229
g6
s(I24
I4
tp4230
g6
s(I55
I16
tp4231
g114
s(I60
I44
tp4232
g2
s(I43
I44
tp4233
g2
s(I64
I-30
tp4234
(F22010.0
F-70000.0
tp4235
s(I63
I33
tp4236
g6
s(I3
I-30
tp4237
g6
s(I43
I-7
tp4238
g6
s(I53
I-7
tp4239
(I0
F20850.0
tp4240
s(I61
I1
tp4241
g6
s(I36
I5
tp4242
g6
s(I13
I-28
tp4243
g6
s(I49
I-2
tp4244
(I0
F96454.0
tp4245
s(I35
I18
tp4246
g88
s(I61
I11
tp4247
g6
s(I62
I-21
tp4248
g6
s(I24
I-8
tp4249
g88
s(I30
I-19
tp4250
(I0
F0.0
tp4251
s(I51
I13
tp4252
g6
s(I15
I51
tp4253
g2
s(I15
I-18
tp4254
(F-26271.0
F-70000.0
tp4255
s(I2
I4
tp4256
g6
s(I32
I8
tp4257
g2
s(I24
I41
tp4258
g2
s(I5
I9
tp4259
g6
s(I9
I-32
tp4260
g6
s(I32
I6
tp4261
g6
s(I27
I52
tp4262
g140
s(I58
I-9
tp4263
g6
s(I34
I-21
tp4264
(I0
F132390.0
tp4265
s(I56
I47
tp4266
g114
s(I33
I-17
tp4267
g2
s(I20
I29
tp4268
g2
s(I11
I-38
tp4269
g2
s(I46
I-6
tp4270
g6
s(I23
I32
tp4271
(I0
F343.0
tp4272
s(I7
I-33
tp4273
g6
s(I43
I-11
tp4274
g6
s(I28
I45
tp4275
g2
s(I21
I-20
tp4276
g6
s(I32
I40
tp4277
g2
s(I31
I32
tp4278
g2
s(I63
I-1
tp4279
g6
s(I48
I34
tp4280
g178
s(I35
I37
tp4281
g31
s(I18
I23
tp4282
g2
s(I41
I10
tp4283
g6
s(I31
I-26
tp4284
g6
s(I33
I27
tp4285
g2
s(I57
I4
tp4286
(I0
F89978.0
tp4287
s(I60
I43
tp4288
(F69550.0
F-70000.0
tp4289
s(I43
I37
tp4290
g2
s(I8
I1
tp4291
(F71384.0
F-2859.0
tp4292
s(I6
I-4
tp4293
g6
s(I63
I46
tp4294
g23
s(I38
I38
tp4295
(F-1449.0
F-70000.0
tp4296
s(I3
I-21
tp4297
g6
s(I63
I31
tp4298
g6
s(I52
I-4
tp4299
g6
s(I28
I19
tp4300
g2
s(I48
I1
tp4301
g6
s(I49
I-9
tp4302
(I0
F12661.0
tp4303
s(I61
I4
tp4304
g6
s(I28
I-9
tp4305
g6
s(I48
I7
tp4306
g6
s(I12
I21
tp4307
(I0
F96546.0
tp4308
s(I36
I46
tp4309
g2
s(I51
I18
tp4310
g6
s(I34
I30
tp4311
(F0.0
F-70000.0
tp4312
s(I15
I-9
tp4313
(F98146.0
F-15368.0
tp4314
s(I48
I27
tp4315
g6
s(I12
I-6
tp4316
(F116620.0
F-21849.0
tp4317
s(I24
I48
tp4318
g23
s(I9
I-23
tp4319
g6
s(I61
I-21
tp4320
g6
s(I40
I17
tp4321
g114
s(I39
I-34
tp4322
g6
s(I30
I10
tp4323
(I0
F138189.0
tp4324
s(I39
I-25
tp4325
g6
s(I33
I-32
tp4326
g6
s(I20
I36
tp4327
g2
s(I42
I9
tp4328
(I0
F81895.0
tp4329
s(I35
I-29
tp4330
g6
s(I11
I0
tp4331
g6
s(I43
I-22
tp4332
g6
s(I28
I36
tp4333
g2
s(I21
I-11
tp4334
g114
s(I32
I47
tp4335
g2
s(I31
I41
tp4336
g2
s(I18
I-8
tp4337
g6
s(I35
I42
tp4338
g2
s(I18
I14
tp4339
g2
s(I57
I25
tp4340
(F9629.0
F-44333.0
tp4341
s(I32
I-14
tp4342
g31
s(I21
I3
tp4343
g6
s(I60
I34
tp4344
(F58289.0
F-43383.0
tp4345
s(I43
I26
tp4346
g31
s(I64
I-16
tp4347
(F150301.0
F-49000.0
tp4348
s(I6
I-9
tp4349
g6
s(I64
I15
tp4350
(I0
F-35842.0
tp4351
s(I53
I21
tp4352
(I0
F81133.0
tp4353
s(I55
I-26
tp4354
g114
s(I56
I20
tp4355
g114
s(I58
I-3
tp4356
g6
s(I52
I-5
tp4357
g6
s(I49
I-24
tp4358
(I0
F0.0
tp4359
s(I4
I4
tp4360
(I0
F35701.0
tp4361
s(I27
I-5
tp4362
(I0
F92624.0
tp4363
s(I12
I12
tp4364
(I0
F61852.0
tp4365
s(I51
I27
tp4366
g2
s(I15
I1
tp4367
(I0
F93088.0
tp4368
s(I15
I-4
tp4369
(I0
F57961.0
tp4370
s(I51
I-30
tp4371
g114
s(I12
I-15
tp4372
(F-38930.0
F-39843.0
tp4373
s(I13
I-23
tp4374
g6
s(I33
I22
tp4375
g31
s(I61
I-28
tp4376
g2
s(I49
I17
tp4377
(F-22090.0
F-42846.0
tp4378
s(I30
I13
tp4379
g88
s(I16
I42
tp4380
g2
s(I47
I7
tp4381
g6
s(I55
I31
tp4382
g88
s(I20
I35
tp4383
g2
s(I55
I3
tp4384
g6
s(I62
I46
tp4385
g6
s(I64
I13
tp4386
(F106339.0
F-70000.0
tp4387
s(I29
I12
tp4388
g88
s(I28
I35
tp4389
g2
s(I18
I40
tp4390
g140
s(I21
I-1
tp4391
g6
s(I32
I38
tp4392
g2
s(I31
I22
tp4393
g2
s(I63
I24
tp4394
g6
s(I18
I-13
tp4395
g6
s(I36
I-21
tp4396
g6
s(I18
I9
tp4397
g114
s(I57
I34
tp4398
(I0
F-6965.0
tp4399
s(I40
I38
tp4400
g2
s(I21
I12
tp4401
g114
s(I26
I18
tp4402
g114
s(I28
I-39
tp4403
g6
s(I43
I19
tp4404
g2
s(I64
I-9
tp4405
(F112616.0
F-70000.0
tp4406
s(I6
I-18
tp4407
g6
s(I11
I42
tp4408
g140
s(I58
I22
tp4409
g6
s(I20
I-39
tp4410
g6
s(I33
I25
tp4411
g114
s(I41
I-11
tp4412
g6
s(I3
I-10
tp4413
g6
s(I36
I50
tp4414
g23
s(I58
I3
tp4415
g6
s(I39
I39
tp4416
g88
s(I61
I22
tp4417
g114
s(I44
I50
tp4418
g2
s(I42
I28
tp4419
(I0
F95605.0
tp4420
s(I12
I11
tp4421
(I0
F30542.0
tp4422
s(I35
I-1
tp4423
g6
s(I15
I14
tp4424
g88
s(I59
I4
tp4425
g6
s(I37
I29
tp4426
g114
s(I12
I-24
tp4427
(F-32464.0
F-38438.0
tp4428
s(I47
I24
tp4429
g114
s(I53
I-2
tp4430
(I0
F81892.0
tp4431
s(I27
I27
tp4432
(I0
F54549.0
tp4433
s(I49
I10
tp4434
(I0
F43531.0
tp4435
s(I52
I1
tp4436
g6
s(I14
I-26
tp4437
g6
s(I33
I-14
tp4438
g6
s(I20
I42
tp4439
g2
s(I3
I18
tp4440
g2
s(I24
I-40
tp4441
g6
s(I25
I33
tp4442
g2
s(I8
I-4
tp4443
(F106670.0
F-57967.0
tp4444
s(I43
I-40
tp4445
g6
s(I50
I24
tp4446
g6
s(I31
I31
tp4447
g88
s(I18
I-22
tp4448
g6
s(I53
I46
tp4449
g2
s(I18
I0
tp4450
g6
s(I57
I43
tp4451
(I0
F86687.0
tp4452
s(I40
I45
tp4453
g2
s(I21
I21
tp4454
g88
s(I27
I-23
tp4455
(I0
F0.0
tp4456
s(I43
I8
tp4457
g6
s(I6
I-31
tp4458
g6
s(I23
I-35
tp4459
(I0
F0.0
tp4460
s(I42
I-13
tp4461
(I0
F0.0
tp4462
s(I11
I35
tp4463
g2
s(I3
I-34
tp4464
g6
s(I20
I-32
tp4465
g6
s(I55
I-12
tp4466
g6
s(I34
I15
tp4467
(I0
F113367.0
tp4468
s(I5
I-33
tp4469
g6
s(I47
I6
tp4470
g6
s(I30
I-2
tp4471
(I0
F82569.0
tp4472
s(I41
I50
tp4473
g2
s(I57
I30
tp4474
(F0.0
F-5456.0
tp4475
s(I48
I-36
tp4476
g178
s(I44
I41
tp4477
g2
s(I9
I25
tp4478
g2
s(I48
I44
tp4479
g88
s(I57
I-15
tp4480
(I0
F112690.0
tp4481
s(I12
I2
tp4482
(I0
F62464.0
tp4483
s(I-1
I1
tp4484
g6
s(I15
I23
tp4485
g2
s(I37
I6
tp4486
g6
s(I37
I2
tp4487
g6
s(I12
I-25
tp4488
(F-28404.0
F-28404.0
tp4489
s(I24
I5
tp4490
g6
s(I53
I4
tp4491
(I0
F86153.0
tp4492
s(I62
I22
tp4493
g6
s(I27
I16
tp4494
(I0
F161277.0
tp4495
s(I46
I-27
tp4496
g6
s(I-1
I7
tp4497
g6
s(I13
I29
tp4498
g2
s(I52
I8
tp4499
g6
s(I28
I25
tp4500
g2
s(I14
I-23
tp4501
g6
s(I38
I-18
tp4502
(I0
F116521.0
tp4503
s(I20
I49
tp4504
g2
s(I3
I27
tp4505
g2
s(I57
I-28
tp4506
(I0
F0.0
tp4507
s(I25
I42
tp4508
g2
s(I6
I4
tp4509
g6
s(I64
I27
tp4510
(F30000.0
F-70000.0
tp4511
s(I28
I49
tp4512
g2
s(I32
I52
tp4513
g2
s(I57
I-14
tp4514
(I0
F114910.0
tp4515
s(I16
I-3
tp4516
g6
s(I18
I-27
tp4517
g6
s(I21
I43
tp4518
g2
s(I57
I44
tp4519
g114
s(I32
I-20
tp4520
g6
s(I21
I30
tp4521
g2
s(I43
I1
tp4522
g6
s(I7
I31
tp4523
g2
s(I23
I-38
tp4524
g2
s(I42
I-6
tp4525
(I0
F92168.0
tp4526
s(I29
I46
tp4527
g2
s(I36
I8
tp4528
g6
s(I20
I-17
tp4529
g6
s(I33
I43
tp4530
g2
s(I16
I45
tp4531
g23
s(I36
I32
tp4532
g2
s(I56
I-23
tp4533
g2
s(I29
I-10
tp4534
g6
s(I30
I-31
tp4535
g2
s(I61
I40
tp4536
g6
s(I55
I-29
tp4537
g178
s(I9
I2
tp4538
g6
s(I5
I-15
tp4539
g6
s(I24
I-37
tp4540
g2
s(I-2
I8
tp4541
g6
s(I54
I-18
tp4542
g2
s(I51
I-7
tp4543
g6
s(I42
I-23
tp4544
(I0
F0.0
tp4545
s(I24
I12
tp4546
g88
s(I62
I25
tp4547
g6
s(I49
I4
tp4548
(I0
F70124.0
tp4549
s(I45
I29
tp4550
(I0
F114749.0
tp4551
s(I13
I22
tp4552
g2
s(I36
I-25
tp4553
g6
s(I52
I20
tp4554
g6
s(I6
I28
tp4555
g2
s(I14
I-16
tp4556
g6
s(I3
I0
tp4557
g6
s(I26
I3
tp4558
g6
s(I17
I3
tp4559
g6
s(I64
I18
tp4560
(F14257.0
F-38980.0
tp4561
s(I28
I8
tp4562
g6
s(I44
I30
tp4563
g178
s(I58
I7
tp4564
g6
s(I38
I-39
tp4565
(I0
F0.0
tp4566
s(I57
I-5
tp4567
(I0
F85430.0
tp4568
s(I18
I-36
tp4569
g6
s(I53
I48
tp4570
g2
s(I52
I14
tp4571
g6
s(I22
I-37
tp4572
g6
s(I40
I27
tp4573
g178
s(I21
I39
tp4574
g2
s(I10
I-36
tp4575
g114
s(I43
I6
tp4576
g6
s(I8
I36
tp4577
(F0.0
F-34300.0
tp4578
s(I59
I-16
tp4579
g6
s(I42
I-27
tp4580
(I0
F0.0
tp4581
s(I29
I39
tp4582
g2
s(I20
I-10
tp4583
g6
s(I33
I44
tp4584
g140
s(I3
I31
tp4585
g2
s(I17
I-3
tp4586
g6
s(I36
I47
tp4587
g2
s(I26
I-5
tp4588
g6
s(I30
I-24
tp4589
g2
s(I35
I27
tp4590
g114
s(I6
I45
tp4591
g23
s(I61
I33
tp4592
g114
s(I44
I31
tp4593
g178
s(I9
I11
tp4594
g31
s(I25
I-19
tp4595
g6
s(I12
I48
tp4596
g23
s(I52
I-3
tp4597
g6
s(I19
I-41
tp4598
g6
s(I34
I5
tp4599
(I0
F29527.0
tp4600
s(I32
I19
tp4601
g178
s(I37
I8
tp4602
g6
s(I24
I19
tp4603
g2
s(I26
I-12
tp4604
g6
s(I39
I-5
tp4605
g6
s(I13
I15
tp4606
g31
s(I52
I30
tp4607
g6
s(I61
I-15
tp4608
g6
s(I0
I12
tp4609
g6
s(I14
I-5
tp4610
g6
s(I28
I13
tp4611
g88
s(I50
I-35
tp4612
g178
s(I3
I9
tp4613
g6
s(I11
I-12
tp4614
g6
s(I51
I28
tp4615
g114
s(I28
I7
tp4616
g6
s(I50
I20
tp4617
g6
s(I31
I10
tp4618
g6
s(I63
I-25
tp4619
g6
s(I39
I4
tp4620
g6
s(I36
I-18
tp4621
g6
s(I40
I2
tp4622
g6
s(I31
I-5
tp4623
g6
s(I31
I0
tp4624
g6
s(I41
I30
tp4625
g31
s(I23
I-24
tp4626
(I0
F63679.0
tp4627
s(I46
I24
tp4628
g6
s(I29
I32
tp4629
g2
s(I20
I-3
tp4630
g6
s(I33
I37
tp4631
g2
s(I56
I-29
tp4632
g178
s(I17
I-10
tp4633
g6
s(I54
I40
tp4634
g178
s(I30
I31
tp4635
(I0
F-1614.0
tp4636
s(I51
I-25
tp4637
g88
s(I58
I39
tp4638
g88
s(I41
I37
tp4639
g2
s(I22
I1
tp4640
g6
s(I30
I45
tp4641
(F-14700.0
F-30000.0
tp4642
s(I27
I-36
tp4643
g6
s(I44
I22
tp4644
g6
s(I9
I12
tp4645
g2
s(I5
I-29
tp4646
g6
s(I51
I-2
tp4647
g6
s(I56
I-8
tp4648
g6
s(I12
I47
tp4649
g23
s(I12
I-20
tp4650
(F-33900.0
F-31385.0
tp4651
s(I19
I-36
tp4652
(F-9252.0
F-91000.0
tp4653
s(I34
I28
tp4654
(F-32778.0
F-33244.0
tp4655
s(I15
I-39
tp4656
(I0
F0.0
tp4657
s(I37
I49
tp4658
g31
s(I16
I36
tp4659
g2
s(I29
I-22
tp4660
g6
s(I24
I26
tp4661
g31
s(I38
I40
tp4662
(I0
F34985.0
tp4663
s(I62
I11
tp4664
g6
s(I45
I49
tp4665
g2
s(I40
I24
tp4666
g88
s(I39
I-16
tp4667
g6
s(I48
I-3
tp4668
g6
s(I0
I3
tp4669
(F62080.0
F-91000.0
tp4670
s(I38
I16
tp4671
(I0
F146968.0
tp4672
s(I4
I-1
tp4673
(F-70000.0
F81508.0
tp4674
s(I11
I-19
tp4675
g6
s(I53
I30
tp4676
(I0
F2051.0
tp4677
s(I60
I-1
tp4678
(F79741.0
F-70000.0
tp4679
s(I50
I15
tp4680
g6
s(I53
I2
tp4681
(I0
F84479.0
tp4682
s(I13
I-37
tp4683
g6
s(I32
I-15
tp4684
g6
s(I21
I41
tp4685
g2
s(I45
I-14
tp4686
(I0
F0.0
tp4687
s(I26
I36
tp4688
g2
s(I7
I10
tp4689
g178
s(I23
I-31
tp4690
(F0.0
F-1543.0
tp4691
s(I42
I-41
tp4692
g6
s(I56
I-22
tp4693
g6
s(I17
I-17
tp4694
g6
s(I54
I35
tp4695
g178
s(I30
I-38
tp4696
(I0
F0.0
tp4697
s(I41
I46
tp4698
g31
s(I22
I24
tp4699
g31
s(I39
I49
tp4700
g2
s(I26
I-8
tp4701
g6
s(I44
I13
tp4702
g6
s(I47
I-17
tp4703
g6
s(I5
I-20
tp4704
g6
s(I22
I-38
tp4705
g6
s(I47
I0
tp4706
g6
s(I12
I38
tp4707
g23
s(I19
I-27
tp4708
(F-8957.0
F-8394.0
tp4709
s(I34
I23
tp4710
(I0
F160866.0
tp4711
s(I36
I-11
tp4712
g6
s(I29
I-29
tp4713
g2
s(I33
I47
tp4714
g2
s(I45
I42
tp4715
g23
s(I49
I47
tp4716
(F-56522.0
F-44120.0
tp4717
s(I31
I-38
tp4718
g6
s(I13
I1
tp4719
g6
s(I6
I52
tp4720
g140
s(I38
I11
tp4721
(I0
F119448.0
tp4722
s(I33
I-1
tp4723
g6
s(I11
I-30
tp4724
g2
s(I13
I3
tp4725
g31
s(I63
I-16
tp4726
g6
s(I64
I43
tp4727
(I0
F-30000.0
tp4728
s(I25
I-25
tp4729
g6
s(I28
I21
tp4730
g2
s(I3
I-3
tp4731
g6
s(I50
I6
tp4732
g6
s(I62
I27
tp4733
g6
s(I53
I11
tp4734
(F91675.0
F-53053.0
tp4735
s(I27
I24
tp4736
(F35664.0
F-7996.0
tp4737
s(I13
I-44
tp4738
g6
s(I4
I30
tp4739
(I0
F-70000.0
tp4740
s(I29
I2
tp4741
g114
s(I26
I47
tp4742
g2
s(I7
I3
tp4743
g6
s(I23
I-2
tp4744
g6
s(I46
I42
tp4745
g88
s(I29
I50
tp4746
g2
s(I30
I-27
tp4747
(I0
F0.0
tp4748
s(I56
I-1
tp4749
g6
s(I16
I9
tp4750
g2
s(I17
I-32
tp4751
g6
s(I32
I4
tp4752
g6
s(I19
I4
tp4753
(I0
F96584.0
tp4754
s(I58
I41
tp4755
g114
s(I47
I-31
tp4756
g6
s(I8
I-8
tp4757
(F-57967.0
F84246.0
tp4758
s(I22
I-35
tp4759
g6
s(I32
I10
tp4760
g6
s(I19
I-22
tp4761
(F-5609.0
F103555.0
tp4762
s(I34
I46
tp4763
(F-48997.0
F-70000.0
tp4764
s(I17
I46
tp4765
g2
s(I37
I35
tp4766
g2
s(I55
I39
tp4767
g2
s(I59
I26
tp4768
g6
s(I16
I3
tp4769
g178
s(I51
I25
tp4770
g6
s(I45
I35
tp4771
(F360.0
F-14551.0
tp4772
s(I4
I-14
tp4773
(F-99757.0
F-99830.0
tp4774
s(I49
I32
tp4775
g31
s(I26
I-37
tp4776
g6
s(I25
I0
tp4777
g6
s(I53
I-29
tp4778
(I0
F0.0
tp4779
s(I41
I2
tp4780
g6
s(I24
I24
tp4781
g88
s(I38
I2
tp4782
(I0
F87798.0
tp4783
s(I48
I39
tp4784
g114
s(I63
I-7
tp4785
g6
s(I15
I-24
tp4786
(F-20413.0
F-20376.0
tp4787
s(I63
I30
tp4788
g6
s(I50
I1
tp4789
g6
s(I63
I23
tp4790
g6
s(I14
I43
tp4791
g23
s(I21
I-33
tp4792
g6
s(I35
I-30
tp4793
g6
s(I28
I27
tp4794
g88
s(I4
I5
tp4795
(I0
F75374.0
tp4796
s(I10
I-16
tp4797
g6
s(I45
I-28
tp4798
(I0
F0.0
tp4799
s(I2
I2
tp4800
g6
s(I23
I-9
tp4801
(I0
F57109.0
tp4802
s(I46
I45
tp4803
g31
s(I59
I-19
tp4804
g6
s(I32
I23
tp4805
g114
s(I51
I34
tp4806
g88
s(I16
I0
tp4807
g6
s(I39
I27
tp4808
g88
s(I34
I-39
tp4809
(F0.0
F-70000.0
tp4810
s(I19
I13
tp4811
(I0
F45147.0
tp4812
s(I58
I48
tp4813
g2
s(I41
I24
tp4814
g88
s(I22
I42
tp4815
g2
s(I9
I-39
tp4816
g2
s(I44
I3
tp4817
g6
s(I9
I39
tp4818
g23
s(I5
I-34
tp4819
g6
s(I47
I28
tp4820
g6
s(I47
I22
tp4821
g6
s(I14
I34
tp4822
g2
s(I19
I-13
tp4823
(F94857.0
F-5144.0
tp4824
s(I34
I41
tp4825
(F-5413.0
F-56994.0
tp4826
s(I17
I39
tp4827
g23
s(I19
I-35
tp4828
(F-4401.0
F-5246.0
tp4829
s(I56
I6
tp4830
g6
s(I37
I44
tp4831
g2
s(I37
I11
tp4832
g6
s(I29
I-11
tp4833
g6
s(I23
I9
tp4834
(I0
F108285.0
tp4835
s(I45
I28
tp4836
(F-3730.0
F-70000.0
tp4837
s(I10
I14
tp4838
g2
s(I4
I-7
tp4839
(F-99978.0
F-99978.0
tp4840
s(I13
I51
tp4841
g2
s(I35
I26
tp4842
g114
s(I52
I19
tp4843
g6
s(I50
I37
tp4844
g178
s(I38
I5
tp4845
(I0
F41107.0
tp4846
s(I25
I16
tp4847
g2
s(I24
I16
tp4848
g114
s(I63
I7
tp4849
g6
s(I32
I-10
tp4850
g178
s(I48
I32
tp4851
g88
s(I38
I-4
tp4852
(I0
F93848.0
tp4853
s(I34
I24
tp4854
(I0
F45230.0
tp4855
s(I16
I-12
tp4856
g6
s(I53
I29
tp4857
(F-91000.0
F-23906.0
tp4858
s(I46
I3
tp4859
g6
s(I39
I30
tp4860
g114
s(I4
I12
tp4861
(I0
F75360.0
tp4862
s(I10
I-5
tp4863
g6
s(I62
I29
tp4864
g6
s(I26
I49
tp4865
g2
s(I46
I52
tp4866
g2
s(I26
I-20
tp4867
g6
s(I52
I-32
tp4868
g178
s(I51
I43
tp4869
g114
s(I16
I7
tp4870
g2
s(I45
I-19
tp4871
g6
s(I48
I15
tp4872
g6
s(I54
I52
tp4873
g2
s(I19
I18
tp4874
(I0
F15086.0
tp4875
s(I47
I-9
tp4876
g6
s(I22
I45
tp4877
g2
s(I13
I-15
tp4878
g6
s(I33
I30
tp4879
g2
s(I9
I40
tp4880
g23
s(I26
I-19
tp4881
g6
s(I22
I-17
tp4882
g6
s(I41
I-23
tp4883
g6
s(I23
I7
tp4884
(I0
F107399.0
tp4885
s(I19
I-8
tp4886
(F93652.0
F-53848.0
tp4887
s(I64
I-31
tp4888
(F79387.0
F-70000.0
tp4889
s(I16
I-11
tp4890
g178
s(I55
I47
tp4891
g114
s(I51
I29
tp4892
g6
s(I55
I11
tp4893
g6
s(I59
I40
tp4894
g114
s(I42
I32
tp4895
(F-2141.0
F-44962.0
tp4896
s(I33
I-2
tp4897
g6
s(I62
I-20
tp4898
g6
s(I62
I39
tp4899
g6
s(I45
I21
tp4900
(I0
F103082.0
tp4901
s(I10
I9
tp4902
g88
s(I4
I-32
tp4903
(I0
F-70000.0
tp4904
s(I13
I44
tp4905
g2
s(I35
I3
tp4906
g88
s(I14
I-34
tp4907
g6
s(I50
I-8
tp4908
g6
s(I62
I-2
tp4909
g6
s(I60
I9
tp4910
(F116920.0
F-41208.0
tp4911
s(I63
I-17
tp4912
g6
s(I40
I-15
tp4913
g6
s(I63
I12
tp4914
g6
s(I11
I26
tp4915
g2
s(I58
I14
tp4916
g6
s(I50
I51
tp4917
g2
s(I64
I24
tp4918
(F80502.0
F-70000.0
tp4919
s(I39
I32
tp4920
g2
s(I1
I0
tp4921
g178
s(I7
I-39
tp4922
g6
s(I39
I23
tp4923
g88
s(I4
I11
tp4924
(I0
F114869.0
tp4925
s(I10
I-30
tp4926
g6
s(I45
I-42
tp4927
g6
s(I38
I26
tp4928
(F2411.0
F-43994.0
tp4929
s(I30
I17
tp4930
(I0
F131972.0
tp4931
s(I29
I29
tp4932
g88
s(I24
I-43
tp4933
g6
s(I51
I48
tp4934
g2
s(I61
I19
tp4935
g6
s(I54
I15
tp4936
g6
s(I12
I-40
tp4937
(I0
F-70000.0
tp4938
s(I47
I-4
tp4939
g6
s(I53
I-10
tp4940
(I0
F82397.0
tp4941
s(I5
I20
tp4942
g2
s(I33
I-15
tp4943
g6
s(I44
I-15
tp4944
g6
s(I27
I43
tp4945
(I0
F-30000.0
tp4946
s(I22
I-26
tp4947
g6
s(I47
I36
tp4948
g31
s(I30
I36
tp4949
(F-9022.0
F-80935.0
tp4950
s(I54
I-33
tp4951
g6
s(I17
I17
tp4952
g88
s(I16
I-20
tp4953
g6
s(I55
I36
tp4954
g88
s(I15
I44
tp4955
(F-67204.0
F-70000.0
tp4956
s(I61
I24
tp4957
g6
s(I59
I33
tp4958
g6
s(I42
I43
tp4959
g2
s(I23
I31
tp4960
g2
s(I7
I-6
tp4961
g6
s(I26
I-38
tp4962
g6
s(I45
I14
tp4963
(I0
F145343.0
tp4964
s(I10
I48
tp4965
g2
s(I4
I-17
tp4966
(F-99927.0
F-99927.0
tp4967
s(I21
I-41
tp4968
g2
s(I40
I-11
tp4969
g6
s(I13
I37
tp4970
g2
s(I34
I25
tp4971
(I0
F108125.0
tp4972
s(I53
I-1
tp4973
(I0
F57730.0
tp4974
s(I18
I48
tp4975
g23
s(I23
I47
tp4976
(F-65700.0
F-65700.0
tp4977
s(I28
I4
tp4978
g2
s(I50
I-13
tp4979
g6
s(I16
I-1
tp4980
g6
s(I26
I-13
tp4981
g6
s(I28
I-24
tp4982
g6
s(I11
I19
tp4983
g2
s(I27
I-15
tp4984
(I0
F86300.0
tp4985
s(I25
I26
tp4986
g2
s(I60
I-25
tp4987
(F91080.0
F-18893.0
tp4988
s(I50
I25
tp4989
g6
s(I13
I-8
tp4990
g6
s(I39
I12
tp4991
g114
s(I31
I-32
tp4992
g6
s(I10
I-19
tp4993
g6
s(I31
I9
tp4994
g6
s(I62
I-9
tp4995
g6
s(I48
I28
tp4996
g6
s(I29
I22
tp4997
g2
s(I25
I-5
tp4998
g6
s(I15
I39
tp4999
g2
s(I42
I5
tp5000
(I0
F94342.0
tp5001
s(I54
I6
tp5002
g6
s(I37
I26
tp5003
g2
s(I12
I-41
tp5004
(F-16807.0
F-5042.0
tp5005
s(I5
I29
tp5006
g2
s(I8
I-14
tp5007
(F-65930.0
F-63335.0
tp5008
s(I11
I27
tp5009
g2
s(I27
I32
tp5010
(F0.0
F-83100.0
tp5011
s(I22
I-7
tp5012
g6
s(I47
I45
tp5013
g88
s(I30
I47
tp5014
g2
s(I50
I46
tp5015
g140
s(I34
I50
tp5016
(F-51000.0
F-30000.0
tp5017
s(I17
I10
tp5018
g2
s(I16
I-29
tp5019
g6
s(I50
I50
tp5020
g2
s(I20
I1
tp5021
g6
s(I64
I-5
tp5022
(F154940.0
F-70000.0
tp5023
s(I59
I38
tp5024
g114
s(I42
I18
tp5025
(I0
F103082.0
tp5026
s(I7
I-13
tp5027
g6
s(I8
I-45
tp5028
g2
s(I45
I7
tp5029
(I0
F65600.0
tp5030
s(I58
I43
tp5031
g114
s(I40
I31
tp5032
g2
s(I4
I28
tp5033
(I0
F-70000.0
tp5034
s(I40
I-4
tp5035
g6
s(I27
I-10
tp5036
(I0
F59894.0
tp5037
s(I35
I49
tp5038
g23
s(I18
I43
tp5039
g2
s(I38
I46
tp5040
(I0
F-30000.0
tp5041
s(I60
I31
tp5042
(F100257.0
F-70000.0
tp5043
s(I43
I49
tp5044
g2
s(I46
I14
tp5045
g88
s(I27
I28
tp5046
g2
s(I38
I-31
tp5047
(I0
F111466.0
tp5048
s(I58
I10
tp5049
g6
s(I54
I-2
tp5050
g6
s(I36
I16
tp5051
g6
s(I29
I-2
tp5052
g6
s(I39
I5
tp5053
g6
s(I17
I-23
tp5054
g6
s(I62
I-1
tp5055
g6
s(I47
I9
tp5056
g6
s(I24
I-21
tp5057
g6
s(I23
I-17
tp5058
(F-8022.0
F56513.0
tp5059
s(I53
I-20
tp5060
(I0
F0.0
tp5061
s(I54
I25
tp5062
g6
s(I19
I41
tp5063
(F0.0
F-30000.0
tp5064
s(I46
I21
tp5065
g6
s(I5
I6
tp5066
g6
s(I9
I-11
tp5067
g6
s(I44
I-25
tp5068
g6
s(I48
I-2
tp5069
g6
s(I22
I-16
tp5070
g6
s(I47
I42
tp5071
g88
s(I52
I-1
tp5072
g6
s(I36
I-41
tp5073
g6
s(I52
I12
tp5074
g6
s(I56
I34
tp5075
g6
s(I33
I-36
tp5076
g6
s(I20
I8
tp5077
g88
s(I55
I30
tp5078
g88
s(I29
I-39
tp5079
g6
s(I42
I29
tp5080
(I0
F160881.0
tp5081
s(I4
I-16
tp5082
(F-99757.0
F-99927.0
tp5083
s(I7
I-24
tp5084
g6
s(I46
I-23
tp5085
g6
s(I45
I0
tp5086
(I0
F99841.0
tp5087
s(I10
I34
tp5088
g2
s(I4
I-35
tp5089
(F-70000.0
F-91000.0
tp5090
s(I57
I-13
tp5091
(I0
F132390.0
tp5092
s(I32
I27
tp5093
g2
s(I23
I45
tp5094
g2
s(I38
I-9
tp5095
(I0
F42970.0
tp5096
s(I46
I-40
tp5097
g6
s(I18
I34
tp5098
g2
s(I55
I48
tp5099
g2
s(I57
I5
tp5100
(I0
F64727.0
tp5101
s(I50
I-27
tp5102
g6
s(I33
I-9
tp5103
g178
s(I28
I-10
tp5104
g6
s(I64
I34
tp5105
(F79056.0
F-70000.0
tp5106
s(I29
I30
tp5107
g2
s(I52
I18
tp5108
g6
s(I11
I1
tp5109
g6
s(I-3
I2
tp5110
g6
s(I14
I14
tp5111
g88
s(I27
I-28
tp5112
(I0
F0.0
tp5113
s(I52
I-17
tp5114
g6
s(I13
I-22
tp5115
g6
s(I39
I2
tp5116
g6
s(I35
I19
tp5117
g88
s(I-3
I6
tp5118
g6
s(I26
I21
tp5119
g2
s(I36
I14
tp5120
g6
s(I48
I10
tp5121
g6
s(I30
I-20
tp5122
g2
s(I37
I-15
tp5123
g6
s(I15
I-32
tp5124
(F-9955.0
F-15155.0
tp5125
s(I34
I-12
tp5126
(I0
F73452.0
tp5127
s(I19
I46
tp5128
(F-51000.0
F-51000.0
tp5129
s(I2
I10
tp5130
g6
s(I49
I-38
tp5131
g6
s(I27
I-13
tp5132
(F-8944.0
F56502.0
tp5133
s(I24
I35
tp5134
g2
s(I9
I-2
tp5135
g6
s(I44
I-34
tp5136
g6
s(I59
I6
tp5137
g6
s(I30
I25
tp5138
g2
s(I34
I-22
tp5139
(I0
F117276.0
tp5140
s(I36
I-34
tp5141
g88
s(I17
I4
tp5142
g178
s(I56
I41
tp5143
g2
s(I33
I-43
tp5144
g6
s(I20
I23
tp5145
g2
s(I22
I-15
tp5146
g6
s(I46
I-16
tp5147
g6
s(I23
I42
tp5148
(F-4101.0
F-30000.0
tp5149
s(I7
I-31
tp5150
g6
s(I53
I35
tp5151
(F-9055.0
F-24444.0
tp5152
s(I51
I20
tp5153
g6
s(I22
I-6
tp5154
g6
s(I21
I-30
tp5155
g6
s(I40
I-22
tp5156
g114
s(I14
I16
tp5157
g31
s(I41
I11
tp5158
g6
s(I31
I-8
tp5159
g6
s(I40
I50
tp5160
g2
s(I31
I-13
tp5161
g6
s(I60
I45
tp5162
g6
s(I31
I24
tp5163
g2
s(I8
I27
tp5164
g2
s(I6
I-6
tp5165
g6
s(I25
I-42
tp5166
g6
s(I38
I33
tp5167
(F-10770.0
F-69683.0
tp5168
s(I25
I-37
tp5169
g2
s(I3
I-27
tp5170
g6
s(I63
I28
tp5171
g114
s(I14
I17
tp5172
g2
s(I60
I-4
tp5173
(F101944.0
F-53843.0
tp5174
s(I36
I6
tp5175
g6
s(I28
I18
tp5176
g31
s(I49
I-3
tp5177
(I0
F57730.0
tp5178
s(I53
I43
tp5179
(F-58237.0
F-59475.0
tp5180
s(I61
I10
tp5181
g6
s(I62
I-24
tp5182
g6
s(I60
I22
tp5183
(F62088.0
F-70000.0
tp5184
s(I24
I-7
tp5185
g6
s(I6
I26
tp5186
g2
s(I51
I12
tp5187
g6
s(I54
I-27
tp5188
g114
s(I46
I-14
tp5189
g6
s(I15
I-23
tp5190
(F-11670.0
F-17130.0
tp5191
s(I2
I5
tp5192
g114
s(I64
I-20
tp5193
(F90257.0
F-49000.0
tp5194
s(I57
I40
tp5195
(F0.0
F-1729.0
tp5196
s(I5
I8
tp5197
g6
s(I9
I-25
tp5198
g6
s(I44
I-43
tp5199
g6
s(I52
I-13
tp5200
g6
s(I40
I16
tp5201
g2
s(I58
I-12
tp5202
g6
s(I60
I8
tp5203
(F122223.0
F-41840.0
tp5204
s(I52
I-24
tp5205
g88
s(I56
I48
tp5206
g114
s(I33
I-18
tp5207
g6
s(I11
I-35
tp5208
g6
s(I46
I-5
tp5209
g6
s(I53
I22
tp5210
(I0
F107192.0
tp5211
s(I6
I25
tp5212
g2
s(I43
I-12
tp5213
g6
s(I33
I15
tp5214
g6
s(I21
I-21
tp5215
g6
s(I32
I41
tp5216
g2
s(I3
I-4
tp5217
g6
s(I18
I-1
tp5218
g6
s(I35
I36
tp5219
g2
s(I18
I20
tp5220
g31
s(I59
I11
tp5221
g6
s(I39
I46
tp5222
g2
s(I22
I14
tp5223
g114
s(I60
I36
tp5224
(F22776.0
F-70000.0
tp5225
s(I43
I36
tp5226
g2
s(I8
I2
tp5227
(I0
F114433.0
tp5228
s(I6
I-3
tp5229
g6
s(I63
I41
tp5230
g2
s(I3
I-22
tp5231
g6
s(I20
I-44
tp5232
g6
s(I55
I-24
tp5233
g88
s(I56
I19
tp5234
g6
s(I30
I8
tp5235
(I0
F163712.0
tp5236
s(I36
I13
tp5237
g114
s(I42
I-1
tp5238
(I0
F100402.0
tp5239
s(I39
I48
tp5240
g2
s(I62
I4
tp5241
g6
s(I64
I16
tp5242
(F85901.0
F-91000.0
tp5243
s(I21
I-39
tp5244
g6
s(I12
I22
tp5245
g2
s(I37
I-29
tp5246
g2
s(I32
I-43
tp5247
g6
s(I15
I-10
tp5248
(F130058.0
F-70000.0
tp5249
s(I40
I49
tp5250
g2
s(I26
I40
tp5251
g2
s(I24
I49
tp5252
g2
s(I9
I-24
tp5253
g6
s(I33
I23
tp5254
g31
s(I27
I12
tp5255
(I0
F98224.0
tp5256
s(I49
I49
tp5257
(F-6300.0
F-30000.0
tp5258
s(I38
I50
tp5259
g2
s(I55
I1
tp5260
g6
s(I20
I37
tp5261
g2
s(I33
I-26
tp5262
g6
s(I62
I41
tp5263
g6
s(I59
I-21
tp5264
g6
s(I28
I-32
tp5265
g6
s(I21
I-12
tp5266
g6
s(I32
I32
tp5267
g88
s(I33
I14
tp5268
g6
s(I3
I38
tp5269
g2
s(I18
I-7
tp5270
g6
s(I52
I26
tp5271
g6
s(I31
I-18
tp5272
g6
s(I40
I32
tp5273
g114
s(I21
I2
tp5274
g6
s(I60
I35
tp5275
(F78626.0
F-70000.0
tp5276
s(I43
I29
tp5277
g178
s(I64
I-15
tp5278
(F125573.0
F-70000.0
tp5279
s(I6
I-12
tp5280
g6
s(I47
I-14
tp5281
g6
s(I64
I21
tp5282
(F81568.0
F-70000.0
tp5283
s(I30
I-3
tp5284
(I0
F102833.0
tp5285
s(I39
I51
tp5286
g2
s(I56
I-10
tp5287
g6
s(I40
I-12
tp5288
g6
s(I39
I41
tp5289
g31
s(I27
I-6
tp5290
(I0
F95718.0
tp5291
s(I55
I-31
tp5292
g6
s(I12
I13
tp5293
g2
s(I63
I15
tp5294
g6
s(I37
I-20
tp5295
g6
s(I28
I30
tp5296
g31
s(I15
I0
tp5297
(I0
F105379.0
tp5298
s(I37
I19
tp5299
g6
s(I12
I-14
tp5300
(F-27481.0
F98570.0
tp5301
s(I39
I-26
tp5302
g6
s(I46
I-3
tp5303
g6
s(I61
I-29
tp5304
g2
s(I49
I16
tp5305
(I0
F84857.0
tp5306
s(I47
I-40
tp5307
g6
s(I58
I-18
tp5308
g6
s(I41
I26
tp5309
g88
s(I33
I-8
tp5310
g6
s(I20
I44
tp5311
g2
s(I23
I49
tp5312
(I0
F-30000.0
tp5313
s(I6
I11
tp5314
g178
s(I64
I14
tp5315
(F17007.0
F-42063.0
tp5316
s(I43
I-30
tp5317
g6
s(I21
I-3
tp5318
g6
s(I32
I39
tp5319
g2
s(I57
I-25
tp5320
g6
s(I35
I28
tp5321
g2
s(I18
I-16
tp5322
g6
s(I53
I36
tp5323
g88
s(I18
I6
tp5324
g88
s(I57
I33
tp5325
(F-2838.0
F-42863.0
tp5326
s(I40
I39
tp5327
g88
s(I-1
I4
tp5328
g6
s(I6
I34
tp5329
g2
s(I35
I12
tp5330
g114
s(I8
I48
tp5331
(I0
F-30000.0
tp5332
s(I55
I-4
tp5333
g6
s(I60
I7
tp5334
(F27381.0
F-70000.0
tp5335
s(I62
I21
tp5336
g6
s(I11
I45
tp5337
g23
s(I20
I-38
tp5338
g6
s(I55
I-1
tp5339
g88
s(I54
I-22
tp5340
g88
s(I36
I51
tp5341
g31
s(I58
I0
tp5342
g6
s(I39
I38
tp5343
g88
s(I57
I31
tp5344
(F23568.0
F-49545.0
tp5345
s(I61
I21
tp5346
g114
s(I44
I51
tp5347
g2
s(I9
I23
tp5348
g2
s(I32
I-39
tp5349
g6
s(I12
I4
tp5350
(I0
F35656.0
tp5351
s(I63
I10
tp5352
g6
s(I8
I23
tp5353
(F-44590.0
F-44590.0
tp5354
s(I15
I9
tp5355
(I0
F43091.0
tp5356
s(I9
I-1
tp5357
g6
s(I37
I28
tp5358
g2
s(I37
I3
tp5359
g6
s(I12
I-23
tp5360
(F-39706.0
F-37625.0
tp5361
s(I35
I-13
tp5362
g6
s(I27
I26
tp5363
(I0
F9637.0
tp5364
s(I28
I-36
tp5365
g6
s(I49
I9
tp5366
(I0
F56491.0
tp5367
s(I52
I2
tp5368
g6
s(I14
I-25
tp5369
g6
s(I55
I23
tp5370
g114
s(I20
I43
tp5371
g2
s(I3
I21
tp5372
g2
s(I51
I23
tp5373
g6
s(I25
I32
tp5374
g23
s(I24
I8
tp5375
g88
s(I8
I-3
tp5376
(F68294.0
F-47677.0
tp5377
s(I64
I5
tp5378
(F41428.0
F-70000.0
tp5379
s(I40
I6
tp5380
g6
s(I57
I-24
tp5381
(I0
F28482.0
tp5382
s(I56
I4
tp5383
g6
s(I18
I-21
tp5384
g6
s(I58
I-19
tp5385
g6
s(I18
I1
tp5386
g6
s(I57
I42
tp5387
g88
s(I40
I46
tp5388
g2
s(I21
I20
tp5389
g88
s(I43
I11
tp5390
g88
s(I6
I-26
tp5391
g6
s(I23
I-36
tp5392
(F-750.0
F-2571.0
tp5393
s(I42
I-16
tp5394
(I0
F2445.0
tp5395
s(I27
I21
tp5396
g2
s(I20
I-31
tp5397
g6
s(I55
I-9
tp5398
g6
s(I52
I46
tp5399
g2
s(I29
I-9
tp5400
g6
s(I58
I11
tp5401
g6
s(I41
I49
tp5402
g140
s(I59
I27
tp5403
g6
s(I44
I42
tp5404
g2
s(I9
I24
tp5405
g2
s(I5
I-9
tp5406
g6
s(I48
I45
tp5407
g88
s(I26
I-30
tp5408
g6
s(I12
I3
tp5409
(I0
F154124.0
tp5410
s(I-2
I6
tp5411
g6
s(I61
I-10
tp5412
g6
s(I37
I5
tp5413
g88
s(I12
I-32
tp5414
(F-13204.0
F-38891.0
tp5415
s(I24
I6
tp5416
g6
s(I26
I-29
tp5417
g6
s(I27
I19
tp5418
(I0
F35085.0
tp5419
s(I49
I2
tp5420
(I0
F89725.0
tp5421
s(I13
I28
tp5422
g2
s(I52
I9
tp5423
g6
s(I52
I11
tp5424
g6
s(I14
I-18
tp5425
g6
s(I3
I26
tp5426
g2
s(I62
I-10
tp5427
g6
s(I25
I41
tp5428
g2
s(I6
I5
tp5429
g6
s(I64
I28
tp5430
(F93022.0
F-91000.0
tp5431
s(I28
I50
tp5432
g140
s(I26
I15
tp5433
g31
s(I58
I6
tp5434
g6
s(I10
I-27
tp5435
g6
s(I31
I7
tp5436
g2
s(I42
I4
tp5437
(I0
F119071.0
tp5438
s(I18
I-30
tp5439
g6
s(I49
I-18
tp5440
g6
s(I32
I-19
tp5441
g6
s(I21
I29
tp5442
g2
s(I43
I0
tp5443
g6
s(I8
I24
tp5444
(I0
F0.0
tp5445
s(I6
I-39
tp5446
g6
s(I29
I23
tp5447
g2
s(I42
I-5
tp5448
(I0
F46082.0
tp5449
s(I29
I45
tp5450
g2
s(I37
I41
tp5451
g2
s(I20
I-24
tp5452
g6
s(I33
I42
tp5453
g2
s(I16
I46
tp5454
g23
s(I17
I-5
tp5455
g6
s(I36
I33
tp5456
g2
s(I30
I-26
tp5457
(I0
F119219.0
tp5458
s(I35
I24
tp5459
g31
s(I-1
I8
tp5460
g6
s(I44
I33
tp5461
g31
s(I9
I1
tp5462
g6
s(I5
I-16
tp5463
g6
s(I48
I36
tp5464
g88
s(I58
I35
tp5465
g6
s(I-1
I9
tp5466
g88
s(I25
I47
tp5467
g2
s(I34
I11
tp5468
g114
s(I15
I31
tp5469
g2
s(I48
I8
tp5470
g6
s(I32
I18
tp5471
g178
s(I37
I14
tp5472
g114
s(I48
I-38
tp5473
g6
s(I48
I18
tp5474
g6
s(I48
I-11
tp5475
g6
s(I25
I-14
tp5476
g6
s(I26
I-22
tp5477
g6
s(I56
I18
tp5478
g6
s(I39
I-3
tp5479
g6
s(I54
I1
tp5480
g6
s(I52
I16
tp5481
g6
s(I36
I-10
tp5482
g6
s(I14
I-15
tp5483
g6
s(I28
I12
tp5484
g88
s(I3
I3
tp5485
g6
s(I11
I-1
tp5486
g6
s(I25
I50
tp5487
g2
s(I8
I-21
tp5488
(F-68679.0
F-66753.0
tp5489
s(I37
I-21
tp5490
g6
s(I60
I-23
tp5491
(F23077.0
F-70000.0
tp5492
s(I50
I26
tp5493
g6
s(I57
I-6
tp5494
(I0
F89036.0
tp5495
s(I25
I18
tp5496
g2
s(I18
I-35
tp5497
g6
s(I41
I12
tp5498
g6
s(I32
I-28
tp5499
g6
s(I21
I38
tp5500
g2
s(I4
I34
tp5501
(F-70000.0
F-91000.0
tp5502
s(I10
I-35
tp5503
g2
s(I31
I1
tp5504
g6
s(I7
I23
tp5505
g2
s(I46
I22
tp5506
g2
s(I7
I-3
tp5507
g6
s(I20
I-9
tp5508
g6
s(I25
I-13
tp5509
g6
s(I16
I37
tp5510
g2
s(I17
I-4
tp5511
g6
s(I36
I40
tp5512
g2
s(I30
I-23
tp5513
(I0
F0.0
tp5514
s(I41
I35
tp5515
g2
s(I22
I15
tp5516
g2
s(I61
I32
tp5517
g114
s(I44
I24
tp5518
g6
s(I9
I10
tp5519
g2
s(I5
I-7
tp5520
g6
s(I48
I-17
tp5521
g6
s(I34
I2
tp5522
(I0
F91242.0
tp5523
s(I37
I-27
tp5524
g6
s(I38
I-1
tp5525
(I0
F50586.0
tp5526
s(I64
I-29
tp5527
(I0
F-91000.0
tp5528
s(I7
I27
tp5529
g2
s(I24
I20
tp5530
g2
s(I40
I-6
tp5531
g6
s(I62
I1
tp5532
g6
s(I40
I23
tp5533
g31
s(I39
I-6
tp5534
g6
s(I13
I14
tp5535
g2
s(I63
I32
tp5536
g6
s(I36
I-17
tp5537
g6
s(I30
I46
tp5538
(I0
F-30000.0
tp5539
s(I61
I26
tp5540
g178
s(I53
I37
tp5541
(F-51000.0
F-15145.0
tp5542
s(I38
I30
tp5543
(I0
F42878.0
tp5544
s(I3
I8
tp5545
g6
s(I39
I-18
tp5546
g6
s(I53
I31
tp5547
(F-52468.0
F-25447.0
tp5548
s(I11
I6
tp5549
g2
s(I61
I-12
tp5550
g6
s(I28
I0
tp5551
g6
s(I61
I-30
tp5552
g6
s(I50
I21
tp5553
g6
s(I59
I0
tp5554
g6
s(I40
I3
tp5555
g6
s(I21
I47
tp5556
g2
s(I45
I-8
tp5557
(I0
F32671.0
tp5558
s(I24
I30
tp5559
g2
s(I7
I12
tp5560
g178
s(I7
I24
tp5561
g2
s(I42
I-19
tp5562
(I0
F33869.0
tp5563
s(I20
I-1
tp5564
g6
s(I33
I36
tp5565
g2
s(I16
I-30
tp5566
g6
s(I17
I-11
tp5567
g6
s(I54
I41
tp5568
g178
s(I58
I36
tp5569
g6
s(I41
I36
tp5570
g2
s(I22
I6
tp5571
g6
s(I42
I10
tp5572
(I0
F56262.0
tp5573
s(I27
I-33
tp5574
(F-7203.0
F-5042.0
tp5575
s(I44
I23
tp5576
g6
s(I9
I51
tp5577
g140
s(I5
I-30
tp5578
g6
s(I12
I40
tp5579
(I0
F-30000.0
tp5580
s(I42
I7
tp5581
(I0
F103769.0
tp5582
s(I19
I-33
tp5583
(F-3607.0
F-70000.0
tp5584
s(I34
I29
tp5585
(F8516.0
F-13224.0
tp5586
s(I36
I-12
tp5587
g6
s(I47
I17
tp5588
g6
s(I37
I48
tp5589
g23
s(I8
I-16
tp5590
(F-65067.0
F-61980.0
tp5591
s(I59
I15
tp5592
g6
s(I24
I27
tp5593
g2
s(I13
I-29
tp5594
g6
s(I35
I-6
tp5595
g6
s(I62
I8
tp5596
g6
s(I45
I48
tp5597
(F-64823.0
F-70000.0
tp5598
s(I49
I42
tp5599
(F0.0
F-70000.0
tp5600
s(I13
I7
tp5601
g2
s(I31
I19
tp5602
g88
s(I0
I4
tp5603
(F109883.0
F-70000.0
tp5604
s(I42
I38
tp5605
(F-68714.0
F-37575.0
tp5606
s(I38
I17
tp5607
(I0
F62999.0
tp5608
s(I26
I27
tp5609
g2
s(I11
I-20
tp5610
g6
s(I64
I42
tp5611
(I0
F67060.0
tp5612
s(I28
I31
tp5613
g2
s(I50
I12
tp5614
g6
s(I53
I1
tp5615
(I0
F62316.0
tp5616
s(I8
I12
tp5617
(I0
F131059.0
tp5618
s(I13
I-38
tp5619
g6
s(I40
I10
tp5620
g6
s(I21
I40
tp5621
g2
s(I26
I28
tp5622
g31
s(I45
I-15
tp5623
(I0
F9004.0
tp5624
s(I51
I24
tp5625
g6
s(I7
I5
tp5626
g6
s(I23
I-32
tp5627
(F-70000.0
F-24417.0
tp5628
s(I42
I-44
tp5629
g6
s(I58
I12
tp5630
g178
s(I30
I-28
tp5631
(I0
F0.0
tp5632
s(I39
I50
tp5633
g2
s(I16
I19
tp5634
g2
s(I17
I-18
tp5635
g6
s(I40
I-5
tp5636
g6
s(I31
I-31
tp5637
g6
s(I30
I-37
tp5638
(I0
F0.0
tp5639
s(I41
I45
tp5640
g2
s(I22
I25
tp5641
g2
s(I44
I14
tp5642
g6
s(I9
I52
tp5643
g140
s(I5
I-21
tp5644
g6
s(I27
I31
tp5645
(F0.0
F-116317.0
tp5646
s(I47
I3
tp5647
g6
s(I12
I39
tp5648
(F-21000.0
F-51000.0
tp5649
s(I52
I-11
tp5650
g6
s(I19
I-28
tp5651
(F-70000.0
F-6300.0
tp5652
s(I54
I-16
tp5653
g6
s(I17
I52
tp5654
g2
s(I61
I37
tp5655
g6
s(I11
I-31
tp5656
g6
s(I29
I-30
tp5657
g6
s(I53
I-8
tp5658
(I0
F0.0
tp5659
s(I29
I4
tp5660
g6
s(I45
I41
tp5661
(I0
F265.0
tp5662
s(I4
I-12
tp5663
(F-99927.0
F-99927.0
tp5664
s(I49
I46
tp5665
g2
s(I13
I0
tp5666
g178
s(I25
I1
tp5667
g2
s(I5
I-1
tp5668
g6
s(I41
I3
tp5669
g6
s(I15
I50
tp5670
(F-89710.0
F-92797.0
tp5671
s(I28
I16
tp5672
g88
s(I11
I-27
tp5673
g6
s(I63
I-13
tp5674
g6
s(I11
I-7
tp5675
g6
s(I57
I-19
tp5676
(I0
F82397.0
tp5677
s(I25
I-26
tp5678
g6
s(I38
I41
tp5679
(I0
F36902.0
tp5680
s(I28
I29
tp5681
g2
s(I50
I7
tp5682
g6
s(I25
I-30
tp5683
g6
s(I12
I52
tp5684
g2
s(I53
I10
tp5685
(I0
F90422.0
tp5686
s(I36
I45
tp5687
g2
s(I13
I-45
tp5688
g6
s(I7
I-23
tp5689
g6
s(I10
I-10
tp5690
g6
s(I45
I-22
tp5691
g6
s(I26
I44
tp5692
g23
s(I7
I2
tp5693
g6
s(I23
I-7
tp5694
(I0
F112517.0
tp5695
s(I46
I43
tp5696
g88
s(I29
I49
tp5697
g2
s(I3
I-29
tp5698
g6
s(I12
I-4
tp5699
(F107827.0
F-21849.0
tp5700
s(I56
I-14
tp5701
g6
s(I17
I-25
tp5702
g6
s(I34
I-33
tp5703
(I0
F0.0
tp5704
s(I19
I7
tp5705
(I0
F98629.0
tp5706
s(I41
I-37
tp5707
g6
s(I41
I22
tp5708
g6
s(I22
I16
tp5709
g2
s(I24
I42
tp5710
g2
s(I44
I5
tp5711
g6
s(I47
I29
tp5712
g6
s(I41
I-1
tp5713
g6
s(I30
I48
tp5714
(F-69998.0
F-70000.0
tp5715
s(I19
I-19
tp5716
(F123033.0
F-6820.0
tp5717
s(I17
I45
tp5718
g2
s(I16
I-8
tp5719
g114
s(I37
I34
tp5720
g2
s(I37
I12
tp5721
g6
s(I59
I29
tp5722
g114
s(I35
I-8
tp5723
g6
s(I45
I34
tp5724
g31
s(I10
I4
tp5725
g178
s(I4
I-13
tp5726
(F-99757.0
F-99927.0
tp5727
s(I49
I39
tp5728
(F-51000.0
F-60918.0
tp5729
s(I-3
I10
tp5730
g6
s(I35
I20
tp5731
g88
s(I33
I41
tp5732
g2
s(I50
I36
tp5733
g178
s(I38
I3
tp5734
(I0
F99699.0
tp5735
s(I8
I49
tp5736
g140
s(I25
I14
tp5737
g2
s(I24
I15
tp5738
g114
s(I63
I25
tp5739
g6
s(I40
I13
tp5740
g114
s(I38
I-6
tp5741
(I0
F101932.0
tp5742
s(I14
I40
tp5743
g23
s(I47
I15
tp5744
g88
s(I53
I19
tp5745
(F-5225.0
F-63816.0
tp5746
s(I42
I-10
tp5747
(I0
F57741.0
tp5748
s(I4
I6
tp5749
(I0
F134364.0
tp5750
s(I10
I-15
tp5751
g6
s(I26
I-24
tp5752
g6
s(I25
I31
tp5753
g2
s(I11
I44
tp5754
g140
s(I23
I-10
tp5755
(I0
F115295.0
tp5756
s(I46
I50
tp5757
g23
s(I59
I-20
tp5758
g6
s(I36
I23
tp5759
g178
s(I16
I-38
tp5760
g6
s(I56
I-7
tp5761
g6
s(I17
I-40
tp5762
g6
s(I54
I50
tp5763
g2
s(I19
I12
tp5764
g2
s(I59
I22
tp5765
g6
s(I58
I49
tp5766
g2
s(I47
I-23
tp5767
g6
s(I22
I43
tp5768
g2
s(I5
I33
tp5769
g2
s(I9
I-40
tp5770
g6
s(I44
I-4
tp5771
g6
s(I14
I-24
tp5772
g6
s(I5
I-35
tp5773
g114
s(I41
I-25
tp5774
g6
s(I25
I-10
tp5775
g6
s(I23
I4
tp5776
(I0
F100702.0
tp5777
s(I19
I-14
tp5778
(F109437.0
F-4035.0
tp5779
s(I23
I-3
tp5780
(I0
F73301.0
tp5781
s(I17
I38
tp5782
g2
s(I56
I7
tp5783
g6
s(I37
I43
tp5784
g2
s(I46
I39
tp5785
g2
s(I29
I-12
tp5786
g6
s(I22
I36
tp5787
g23
s(I23
I8
tp5788
(I0
F97853.0
tp5789
s(I45
I27
tp5790
(F-79745.0
F-81696.0
tp5791
s(I10
I15
tp5792
g2
s(I4
I-6
tp5793
(F-99190.0
F-99757.0
tp5794
s(I60
I14
tp5795
(F118396.0
F-29103.0
tp5796
s(I36
I-3
tp5797
g6
s(I35
I29
tp5798
g2
s(I14
I-44
tp5799
g6
s(I50
I-1
tp5800
g6
s(I26
I13
tp5801
g178
s(I63
I-31
tp5802
g6
s(I42
I15
tp5803
(I0
F117938.0
tp5804
s(I63
I6
tp5805
g6
s(I8
I32
tp5806
(F-34300.0
F-10290.0
tp5807
s(I58
I1
tp5808
g6
s(I38
I-3
tp5809
(I0
F98333.0
tp5810
s(I23
I35
tp5811
(F0.0
F-70000.0
tp5812
s(I14
I51
tp5813
g2
s(I53
I28
tp5814
(F-5914.0
F-10651.0
tp5815
s(I49
I-25
tp5816
(I0
F0.0
tp5817
s(I56
I11
tp5818
g6
s(I30
I0
tp5819
(I0
F81262.0
tp5820
s(I49
I-33
tp5821
(I0
F0.0
tp5822
s(I56
I-25
tp5823
g114
s(I10
I-8
tp5824
g6
s(I50
I-2
tp5825
g6
s(I29
I16
tp5826
g178
s(I29
I3
tp5827
g6
s(I29
I-21
tp5828
g6
s(I51
I42
tp5829
g114
s(I36
I-19
tp5830
g6
s(I-1
I10
tp5831
g114
s(I7
I-34
tp5832
g6
s(I19
I21
tp5833
(I0
F34985.0
tp5834
s(I47
I-10
tp5835
g6
s(I22
I34
tp5836
g2
s(I25
I-24
tp5837
g6
s(I44
I-5
tp5838
g6
s(I9
I47
tp5839
g23
s(I22
I-20
tp5840
g6
s(I47
I30
tp5841
g88
s(I36
I-9
tp5842
g6
s(I19
I-5
tp5843
(I0
F103078.0
tp5844
s(I34
I33
tp5845
(I0
F24652.0
tp5846
s(I17
I31
tp5847
g2
s(I16
I-10
tp5848
g6
s(I38
I43
tp5849
(F-50988.0
F-109524.0
tp5850
s(I59
I43
tp5851
g2
s(I42
I33
tp5852
(I0
F87563.0
tp5853
s(I23
I1
tp5854
(I0
F147124.0
tp5855
s(I7
I-4
tp5856
g6
s(I62
I36
tp5857
g6
s(I45
I20
tp5858
(F-10271.0
F-21978.0
tp5859
s(I4
I-31
tp5860
(I0
F-70000.0
tp5861
s(I34
I-4
tp5862
(I0
F95657.0
tp5863
s(I46
I44
tp5864
g31
s(I53
I-12
tp5865
(I0
F0.0
tp5866
s(I18
I-2
tp5867
g6
s(I14
I-33
tp5868
g6
s(I28
I11
tp5869
g31
s(I50
I-7
tp5870
g6
s(I59
I-17
tp5871
g6
s(I60
I10
tp5872
(F85133.0
F-13746.0
tp5873
s(I25
I24
tp5874
g88
s(I28
I-17
tp5875
g6
s(I16
I40
tp5876
g2
s(I50
I48
tp5877
g2
s(I25
I27
tp5878
g31
s(I1
I7
tp5879
g6
s(I13
I-2
tp5880
g6
s(I46
I15
tp5881
g6
s(I39
I22
tp5882
g88
s(I57
I23
tp5883
(I0
F101770.0
tp5884
s(I10
I-29
tp5885
g6
s(I31
I14
tp5886
g31
s(I47
I12
tp5887
g6
s(I29
I28
tp5888
g88
s(I51
I51
tp5889
g2
s(I54
I12
tp5890
g6
s(I37
I27
tp5891
g31
s(I12
I-39
tp5892
g6
s(I41
I9
tp5893
g88
s(I22
I37
tp5894
g2
s(I5
I19
tp5895
g2
s(I44
I-14
tp5896
g6
s(I33
I18
tp5897
g88
s(I22
I-25
tp5898
g6
s(I47
I39
tp5899
g114
s(I30
I37
tp5900
(F-19900.0
F-70000.0
tp5901
s(I12
I-22
tp5902
(F-35352.0
F-41658.0
tp5903
s(I34
I19
tp5904
(I0
F98348.0
tp5905
s(I17
I16
tp5906
g88
s(I16
I-19
tp5907
g6
s(I25
I-17
tp5908
g6
s(I64
I-6
tp5909
(F101947.0
F-63422.0
tp5910
s(I59
I32
tp5911
g6
s(I42
I40
tp5912
(F1901.0
F-70000.0
tp5913
s(I7
I-11
tp5914
g6
s(I62
I47
tp5915
g6
s(I45
I13
tp5916
(I0
F82282.0
tp5917
s(I10
I49
tp5918
g140
s(I32
I-26
tp5919
g2
s(I21
I-42
tp5920
g6
s(I40
I-10
tp5921
g6
s(I25
I-33
tp5922
g6
s(I53
I-3
tp5923
(I0
F75565.0
tp5924
s(I18
I49
tp5925
g2
s(I38
I52
tp5926
g2
s(I30
I3
tp5927
(I0
F37614.0
tp5928
s(I60
I1
tp5929
(F47581.0
F-61667.0
tp5930
s(I53
I24
tp5931
(F-1865.0
F-2964.0
tp5932
s(I8
I44
tp5933
g140
s(I25
I43
tp5934
g2
s(I3
I-15
tp5935
g6
s(I50
I43
tp5936
g2
s(I52
I38
tp5937
g178
s(I62
I2
tp5938
g6
s(I13
I-9
tp5939
g6
s(I35
I10
tp5940
g6
s(I39
I15
tp5941
g2
s(I10
I-22
tp5942
g6
s(I62
I23
tp5943
g6
s(I62
I-12
tp5944
g6
s(I29
I18
tp5945
g31
s(I48
I29
tp5946
g6
s(I29
I21
tp5947
g114
s(I45
I-29
tp5948
(I0
F-91000.0
tp5949
s(I8
I11
tp5950
(I0
F103373.0
tp5951
s(I56
I33
tp5952
g31
s(I15
I38
tp5953
(F0.0
F-30000.0
tp5954
s(I35
I8
tp5955
g114
s(I54
I7
tp5956
g6
s(I19
I35
tp5957
(F0.0
F-30000.0
tp5958
s(I46
I20
tp5959
g6
s(I42
I-4
tp5960
(I0
F83785.0
tp5961
s(I5
I28
tp5962
g2
s(I9
I-13
tp5963
g6
s(I44
I-23
tp5964
g6
s(I52
I-33
tp5965
g178
s(I29
I-4
tp5966
g6
s(I22
I-2
tp5967
g2
s(I41
I-38
tp5968
g6
s(I30
I44
tp5969
g2
s(I17
I9
tp5970
g114
s(I16
I-28
tp5971
g6
s(I20
I2
tp5972
g6
s(I33
I17
tp5973
g88
s(I42
I19
tp5974
(I0
F163722.0
tp5975
s(I23
I23
tp5976
(I0
F85063.0
tp5977
s(I7
I-14
tp5978
g6
s(I8
I-44
tp5979
(I0
F-70000.0
tp5980
s(I45
I6
tp5981
(I0
F51612.0
tp5982
s(I51
I30
tp5983
g6
s(I39
I-27
tp5984
g2
s(I32
I5
tp5985
g114
s(I42
I-33
tp5986
g6
s(I16
I15
tp5987
g88
s(I35
I48
tp5988
g140
s(I49
I-10
tp5989
(I0
F0.0
tp5990
s(I57
I3
tp5991
(I0
F56167.0
tp5992
s(I38
I47
tp5993
(F-75990.0
F-75010.0
tp5994
s(I55
I22
tp5995
g6
s(I24
I31
tp5996
g2
s(I16
I20
tp5997
g2
s(I34
I-24
tp5998
(I0
F0.0
tp5999
s(I64
I33
tp6000
(F71846.0
F-70000.0
tp6001
s(I51
I8
tp6002
g6
s(I11
I11
tp6003
g88
s(I-3
I8
tp6004
g114
s(I50
I34
tp6005
g88
s(I36
I-8
tp6006
g6
s(I53
I-34
tp6007
g6
s(I52
I-31
tp6008
g6
s(I13
I-16
tp6009
g6
s(I24
I9
tp6010
g88
s(I24
I-19
tp6011
g6
s(I26
I11
tp6012
g88
s(I51
I46
tp6013
g23
s(I48
I20
tp6014
g6
s(I58
I27
tp6015
g114
s(I51
I1
tp6016
g6
s(I15
I47
tp6017
g23
s(I34
I-6
tp6018
(I0
F56490.0
tp6019
s(I19
I40
tp6020
(I0
F0.0
tp6021
s(I41
I-32
tp6022
g6
s(I5
I5
tp6023
g6
s(I9
I-12
tp6024
g6
s(I64
I6
tp6025
(F122377.0
F-45068.0
tp6026
s(I36
I9
tp6027
g114
s(I59
I12
tp6028
g6
s(I30
I23
tp6029
g2
s(I34
I-19
tp6030
(F80040.0
F-70000.0
tp6031
s(I52
I32
tp6032
g6
s(I17
I2
tp6033
g6
s(I16
I-37
tp6034
g6
s(I20
I9
tp6035
g31
s(I32
I13
tp6036
g6
s(I42
I26
tp6037
(F0.0
F-31366.0
tp6038
s(I23
I44
tp6039
(F-10710.0
F-30000.0
tp6040
s(I7
I-21
tp6041
g6
s(I8
I-37
tp6042
g178
s(I51
I21
tp6043
g6
s(I10
I35
tp6044
g2
s(I4
I-34
tp6045
(F-99190.0
F-99190.0
tp6046
s(I32
I28
tp6047
g2
s(I25
I10
tp6048
g88
s(I18
I35
tp6049
g2
s(I40
I-7
tp6050
g6
s(I31
I-14
tp6051
g6
s(I50
I-30
tp6052
g114
s(I35
I-42
tp6053
g6
s(I24
I-14
tp6054
g6
s(I60
I23
tp6055
(F106754.0
F-70000.0
tp6056
s(I43
I41
tp6057
g2
s(I64
I-19
tp6058
(F110635.0
F-70000.0
tp6059
s(I38
I32
tp6060
(F-4381.0
F-56994.0
tp6061
s(I28
I46
tp6062
g2
s(I-3
I1
tp6063
g178
s(I25
I-21
tp6064
g6
s(I14
I15
tp6065
g2
s(I40
I28
tp6066
g88
s(I36
I24
tp6067
g88
s(I28
I17
tp6068
g2
s(I37
I-26
tp6069
g6
s(I49
I-5
tp6070
(I0
F76467.0
tp6071
s(I31
I-16
tp6072
g6
s(I35
I-38
tp6073
g6
s(I41
I19
tp6074
g6
s(I62
I-26
tp6075
g6
s(I28
I-11
tp6076
g6
s(I48
I11
tp6077
g6
s(I12
I-5
tp6078
(F69691.0
F-16443.0
tp6079
s(I51
I6
tp6080
g6
s(I34
I0
tp6081
(I0
F93427.0
tp6082
s(I15
I52
tp6083
g2
s(I15
I-29
tp6084
(F-17322.0
F-15845.0
tp6085
s(I34
I-11
tp6086
(F64671.0
F-70000.0
tp6087
s(I19
I49
tp6088
g2
s(I2
I11
tp6089
g6
s(I48
I6
tp6090
g6
s(I48
I-1
tp6091
g6
s(I24
I36
tp6092
g2
s(I5
I14
tp6093
g2
s(I9
I-3
tp6094
g6
s(I44
I-33
tp6095
g6
s(I27
I49
tp6096
g2
s(I39
I-17
tp6097
g6
s(I47
I50
tp6098
g2
s(I30
I30
tp6099
(F-92062.0
F-27170.0
tp6100
s(I36
I-33
tp6101
g6
s(I56
I27
tp6102
g6
s(I56
I42
tp6103
g178
s(I33
I-44
tp6104
g6
s(I46
I-15
tp6105
g6
s(I23
I37
tp6106
g2
s(I7
I-32
tp6107
g6
s(I40
I-24
tp6108
g6
s(I43
I-2
tp6109
g6
s(I10
I42
tp6110
g23
s(I61
I-22
tp6111
g6
s(I40
I-21
tp6112
g6
s(I31
I37
tp6113
g2
s(I18
I26
tp6114
g2
s(I29
I-18
tp6115
g6
s(I40
I51
tp6116
g140
s(I43
I46
tp6117
g2
s(I8
I28
tp6118
(F0.0
F-34300.0
tp6119
s(I6
I-5
tp6120
g6
s(I63
I35
tp6121
g6
s(I49
I31
tp6122
(F-50601.0
F108123.0
tp6123
s(I3
I-28
tp6124
g6
s(I14
I22
tp6125
g2
s(I27
I35
tp6126
(I0
F122876.0
tp6127
s(I30
I11
tp6128
(I0
F101258.0
tp6129
s(I36
I7
tp6130
g6
s(I64
I31
tp6131
(F17645.0
F-70000.0
tp6132
s(I13
I-30
tp6133
g6
s(I39
I25
tp6134
g178
s(I49
I-4
tp6135
(I0
F70662.0
tp6136
s(I4
I26
tp6137
(I0
F-70000.0
tp6138
s(I61
I9
tp6139
g6
s(I26
I29
tp6140
g2
s(I64
I4
tp6141
(F135702.0
F-91000.0
tp6142
s(I24
I-6
tp6143
g6
s(I36
I30
tp6144
g2
s(I62
I16
tp6145
g6
s(I37
I-7
tp6146
g6
s(I24
I-28
tp6147
g6
s(I64
I9
tp6148
(F53863.0
F-44693.0
tp6149
s(I24
I-36
tp6150
g6
s(I24
I-4
tp6151
g6
s(I-1
I-1
tp6152
g114
s(I12
I-3
tp6153
(F81601.0
F-7008.0
tp6154
s(I8
I-11
tp6155
(F-67475.0
F-64711.0
tp6156
s(I24
I43
tp6157
g2
s(I13
I-21
tp6158
g6
s(I9
I-26
tp6159
g6
s(I44
I-42
tp6160
g6
s(I51
I-35
tp6161
g6
s(I49
I50
tp6162
(I0
F-30000.0
tp6163
s(I58
I-11
tp6164
g6
s(I26
I10
tp6165
g88
s(I33
I-19
tp6166
g6
s(I20
I31
tp6167
g23
s(I33
I-25
tp6168
g2
s(I24
I-5
tp6169
g6
s(I46
I-8
tp6170
g6
s(I23
I34
tp6171
(I0
F-30000.0
tp6172
s(I6
I30
tp6173
g2
s(I29
I14
tp6174
g88
s(I28
I47
tp6175
g2
s(I21
I-22
tp6176
g6
s(I32
I42
tp6177
g2
s(I31
I34
tp6178
g2
s(I5
I-6
tp6179
g6
s(I35
I39
tp6180
g2
s(I18
I21
tp6181
g2
s(I47
I51
tp6182
g2
s(I57
I22
tp6183
(F-724.0
F-6793.0
tp6184
s(I30
I-7
tp6185
(I0
F110714.0
tp6186
s(I26
I20
tp6187
g2
s(I60
I37
tp6188
(F76466.0
F-30000.0
tp6189
s(I43
I39
tp6190
g2
s(I8
I3
tp6191
(I0
F43175.0
tp6192
s(I51
I33
tp6193
g88
s(I25
I-34
tp6194
g6
s(I3
I-19
tp6195
g6
s(I20
I-43
tp6196
g6
s(I55
I-21
tp6197
g88
s(I34
I6
tp6198
(I0
F43994.0
tp6199
s(I32
I11
tp6200
g6
s(I57
I47
tp6201
(I0
F86590.0
tp6202
s(I6
I16
tp6203
g2
s(I49
I-11
tp6204
(I0
F0.0
tp6205
s(I33
I20
tp6206
g178
s(I61
I2
tp6207
g6
s(I64
I38
tp6208
(F0.0
F-70000.0
tp6209
s(I43
I-19
tp6210
g6
s(I37
I-30
tp6211
g6
s(I15
I-15
tp6212
(F108446.0
F-16294.0
tp6213
s(I28
I37
tp6214
g2
s(I42
I12
tp6215
(I0
F111887.0
tp6216
s(I12
I-12
tp6217
(F-33104.0
F89956.0
tp6218
s(I15
I29
tp6219
g2
s(I9
I-17
tp6220
g6
s(I40
I-29
tp6221
g6
s(I27
I15
tp6222
(I0
F121903.0
tp6223
s(I42
I25
tp6224
(F-89787.0
F105339.0
tp6225
s(I49
I30
tp6226
(F-19508.0
F-38232.0
tp6227
s(I58
I-4
tp6228
g6
s(I31
I15
tp6229
g88
s(I41
I27
tp6230
g178
s(I55
I0
tp6231
g6
s(I20
I38
tp6232
g2
s(I31
I26
tp6233
g2
s(I31
I40
tp6234
g2
s(I42
I47
tp6235
(I0
F0.0
tp6236
s(I64
I8
tp6237
(F99970.0
F-33278.0
tp6238
s(I43
I-20
tp6239
g6
s(I28
I38
tp6240
g2
s(I31
I17
tp6241
g178
s(I21
I-13
tp6242
g6
s(I32
I33
tp6243
g2
s(I31
I43
tp6244
g2
s(I18
I-10
tp6245
g6
s(I35
I44
tp6246
g2
s(I18
I12
tp6247
g2
s(I31
I-23
tp6248
g6
s(I40
I33
tp6249
g2
s(I21
I1
tp6250
g6
s(I35
I45
tp6251
g2
s(I43
I28
tp6252
g88
s(I64
I-14
tp6253
(F57730.0
F-70000.0
tp6254
s(I6
I-11
tp6255
g6
s(I60
I6
tp6256
(F145403.0
F-6520.0
tp6257
s(I30
I18
tp6258
(I0
F24100.0
tp6259
s(I20
I-36
tp6260
g6
s(I33
I6
tp6261
g114
s(I63
I-22
tp6262
g6
s(I54
I-15
tp6263
g6
s(I30
I-14
tp6264
(I0
F102117.0
tp6265
s(I39
I40
tp6266
g2
s(I47
I27
tp6267
g6
s(I27
I-20
tp6268
(F47371.0
F-56485.0
tp6269
s(I27
I-3
tp6270
(I0
F111394.0
tp6271
s(I39
I45
tp6272
g2
s(I48
I48
tp6273
g2
s(I39
I29
tp6274
g31
s(I8
I-5
tp6275
(F93090.0
F-63731.0
tp6276
s(I63
I11
tp6277
g6
s(I4
I-38
tp6278
(F-70000.0
F-70000.0
tp6279
s(I15
I3
tp6280
(I0
F73292.0
tp6281
s(I15
I-2
tp6282
(I0
F87026.0
tp6283
s(I34
I16
tp6284
(I0
F72372.0
tp6285
s(I37
I18
tp6286
g6
s(I37
I4
tp6287
g6
s(I12
I-13
tp6288
(F-41844.0
F88240.0
tp6289
s(I53
I6
tp6290
(I0
F109027.0
tp6291
s(I27
I4
tp6292
(I0
F163697.0
tp6293
s(I49
I23
tp6294
(F-5703.0
F-9354.0
tp6295
s(I8
I-28
tp6296
(F-54880.0
F-25328.0
tp6297
s(I52
I4
tp6298
g6
s(I50
I44
tp6299
g2
s(I20
I45
tp6300
g2
s(I8
I9
tp6301
(I0
F27550.0
tp6302
s(I23
I48
tp6303
(I0
F0.0
tp6304
s(I6
I8
tp6305
g6
s(I8
I-9
tp6306
(F-63462.0
F48016.0
tp6307
s(I32
I35
tp6308
g2
s(I32
I-3
tp6309
g6
s(I21
I-4
tp6310
g6
s(I31
I16
tp6311
g88
s(I16
I-5
tp6312
g6
s(I18
I-15
tp6313
g6
s(I58
I-20
tp6314
g6
s(I18
I7
tp6315
g31
s(I46
I-29
tp6316
g6
s(I57
I32
tp6317
(F1773.0
F-9914.0
tp6318
s(I40
I40
tp6319
g88
s(I21
I10
tp6320
g31
s(I57
I-17
tp6321
(I0
F0.0
tp6322
s(I28
I-37
tp6323
g6
s(I43
I21
tp6324
g6
s(I28
I3
tp6325
g6
s(I6
I-20
tp6326
g6
s(I46
I2
tp6327
g6
s(I49
I-17
tp6328
(I0
F28482.0
tp6329
s(I3
I-37
tp6330
g6
s(I20
I-37
tp6331
g6
s(I33
I31
tp6332
g2
s(I16
I49
tp6333
g2
s(I59
I30
tp6334
g114
s(I30
I-11
tp6335
(I0
F21261.0
tp6336
s(I39
I33
tp6337
g2
s(I27
I-14
tp6338
(F120338.0
F-3709.0
tp6339
s(I44
I44
tp6340
g88
s(I55
I46
tp6341
g2
s(I24
I-27
tp6342
g6
s(I12
I5
tp6343
(I0
F71148.0
tp6344
s(I35
I11
tp6345
g2
s(I23
I-27
tp6346
(F-949.0
F-231.0
tp6347
s(I15
I8
tp6348
g2
s(I51
I-19
tp6349
g6
s(I46
I31
tp6350
g88
s(I3
I39
tp6351
g2
s(I24
I0
tp6352
g6
s(I41
I-24
tp6353
g6
s(I42
I-7
tp6354
(I0
F61879.0
tp6355
s(I61
I-5
tp6356
g6
s(I26
I-2
tp6357
g6
s(I31
I-42
tp6358
g6
s(I49
I8
tp6359
(I0
F79736.0
tp6360
s(I36
I52
tp6361
g31
s(I36
I-13
tp6362
g6
s(I36
I-6
tp6363
g6
s(I14
I-28
tp6364
g6
s(I33
I-16
tp6365
g6
s(I41
I-10
tp6366
g6
s(I62
I-15
tp6367
g6
s(I50
I29
tp6368
g6
s(I25
I39
tp6369
g2
s(I6
I3
tp6370
g6
s(I8
I-1
tp6371
(F79178.0
F-10290.0
tp6372
s(I28
I52
tp6373
g2
s(I49
I36
tp6374
(F842.0
F-30000.0
tp6375
s(I31
I25
tp6376
g2
s(I34
I38
tp6377
(I0
F121297.0
tp6378
s(I18
I-24
tp6379
g6
s(I53
I44
tp6380
g114
s(I50
I47
tp6381
g2
s(I31
I-33
tp6382
g6
s(I32
I-41
tp6383
g6
s(I48
I26
tp6384
g6
s(I32
I36
tp6385
g2
s(I35
I-5
tp6386
g6
s(I43
I10
tp6387
g6
s(I7
I32
tp6388
g2
s(I59
I-2
tp6389
g6
s(I46
I5
tp6390
g6
s(I20
I-30
tp6391
g6
s(I33
I16
tp6392
g88
s(I8
I-18
tp6393
(F-67197.0
F-68322.0
tp6394
s(I61
I28
tp6395
g6
s(I44
I32
tp6396
g88
s(I58
I8
tp6397
g6
s(I25
I25
tp6398
g88
s(I64
I37
tp6399
(F85430.0
F-70000.0
tp6400
s(I14
I4
tp6401
g31
s(I44
I43
tp6402
g88
s(I5
I-10
tp6403
g6
s(I48
I46
tp6404
g2
s(I58
I34
tp6405
g2
s(I-2
I7
tp6406
g6
s(I15
I17
tp6407
(I0
F34985.0
tp6408
s(I47
I-36
tp6409
g6
s(I51
I-14
tp6410
g6
s(I31
I30
tp6411
g88
s(I12
I-31
tp6412
(F0.0
F-14293.0
tp6413
s(I24
I7
tp6414
g88
s(I26
I-32
tp6415
g6
s(I27
I18
tp6416
(I0
F153371.0
tp6417
s(I25
I-16
tp6418
g6
s(I49
I1
tp6419
(I0
F88690.0
tp6420
s(I55
I6
tp6421
g6
s(I34
I-28
tp6422
g114
s(I52
I10
tp6423
g6
s(I14
I-17
tp6424
g6
s(I52
I-9
tp6425
g6
s(I11
I-8
tp6426
g6
s(I33
I29
tp6427
g2
s(I25
I40
tp6428
g2
s(I8
I-27
tp6429
(F-65067.0
F-61980.0
tp6430
s(I51
I26
tp6431
g6
s(I28
I51
tp6432
g140
s(I47
I31
tp6433
g88
s.