(dp0
(I28
I47
I1
I16
I59
tp1
I0
s(I61
I-4
I1
I50
I8
tp2
I0
s(I5
I17
I1
I-5
I25
tp3
I-100000
s(I61
I53
I0
I50
I60
tp4
I0
s(I50
I24
I1
I39
I34
tp5
I0
s(I28
I59
I1
I16
I71
tp6
I0
s(I16
I31
I1
I7
I35
tp7
I-100000
s(I73
I46
I0
I61
I53
tp8
I0
s(I95
I42
I1
I84
I54
tp9
I0
s(I39
I62
I1
I28
I72
tp10
I-100000
s(I28
I13
I1
I16
I25
tp11
I0
s(I73
I40
I0
I61
I29
tp12
I0
s(I73
I21
I1
I61
I30
tp13
I0
s(I50
I46
I1
I39
I59
tp14
I0
s(I73
I12
I1
I61
I22
tp15
I0
s(I61
I31
I1
I50
I40
tp16
I0
s(I73
I-3
I1
I61
I7
tp17
I0
s(I95
I41
I1
I84
I51
tp18
I0
s(I61
I47
I0
I50
I54
tp19
I0
s(I39
I44
I1
I28
I57
tp20
I0
s(I16
I70
I0
I16
I72
tp21
I-100000
s(I16
I-15
I1
I7
I-8
tp22
I-100000
s(I28
I23
I1
I16
I33
tp23
I0
s(I84
I59
I1
I73
I71
tp24
I0
s(I39
I55
I1
I28
I67
tp25
I0
s(I106
I13
I0
I95
I20
tp26
I0
s(I5
I19
I1
I-3
I25
tp27
I-100000
s(I16
I-2
I0
I7
I-11
tp28
I-100000
s(I73
I38
I0
I61
I45
tp29
I0
s(I39
I41
I0
I28
I30
tp30
I0
s(I61
I31
I0
I50
I20
tp31
I0
s(I50
I45
I1
I39
I57
tp32
I0
s(I28
I3
I1
I16
I13
tp33
I0
s(I39
I57
I1
I28
I69
tp34
I0
s(I61
I48
I1
I50
I57
tp35
I0
s(I106
I34
I1
I95
I47
tp36
I0
s(I95
I40
I0
I84
I28
tp37
I0
s(I28
I-14
I1
I16
I-5
tp38
I0
s(I39
I53
I1
I28
I63
tp39
I0
s(I50
I-10
I0
I39
I-21
tp40
I0
s(I84
I55
I0
I73
I44
tp41
I0
s(I28
I55
I1
I16
I67
tp42
I0
s(I16
I25
I1
I7
I32
tp43
I-100000
s(I73
I38
I1
I61
I47
tp44
I0
s(I84
I57
I1
I73
I69
tp45
I0
s(I84
I55
I1
I73
I64
tp46
I0
s(I95
I35
I0
I84
I42
tp47
I0
s(I84
I57
I0
I73
I64
tp48
I0
s(I50
I39
I0
I39
I45
tp49
I0
s(I50
I9
I1
I39
I18
tp50
I0
s(I16
I11
I1
I5
I23
tp51
I0
s(I61
I35
I1
I50
I45
tp52
I0
s(I39
I24
I0
I28
I31
tp53
I0
s(I16
I57
I1
I7
I63
tp54
I-100000
s(I84
I19
I1
I73
I29
tp55
I0
s(I28
I39
I1
I16
I48
tp56
I0
s(I16
I39
I1
I7
I48
tp57
I-100000
s(I16
I61
I1
I7
I69
tp58
I-100000
s(I84
I42
I0
I73
I48
tp59
I0
s(I28
I60
I1
I16
I72
tp60
I-100000
s(I61
I28
I0
I50
I35
tp61
I0
s(I5
I12
I0
I1
I26
tp62
I-100000
s(I118
I13
I0
I115
I22
tp63
I100000
s(I28
I13
I0
I16
I1
tp64
I0
s(I50
I18
I0
I39
I7
tp65
I0
s(I16
I58
I1
I7
I66
tp66
I-100000
s(I50
I61
I0
I39
I50
tp67
I0
s(I61
I22
I1
I50
I34
tp68
I0
s(I28
I-7
I0
I16
I-19
tp69
I0
s(I50
I31
I1
I39
I43
tp70
I0
s(I39
I24
I1
I28
I37
tp71
I0
s(I28
I-48
I1
I16
I-38
tp72
I0
s(I28
I45
I1
I16
I54
tp73
I0
s(I61
I37
I0
I50
I26
tp74
I0
s(I73
I39
I1
I61
I52
tp75
I0
s(I50
I-5
I1
I39
I7
tp76
I0
s(I118
I21
I1
I115
I23
tp77
I100000
s(I61
I70
I0
I61
I72
tp78
I-100000
s(I28
I-14
I0
I16
I-25
tp79
I0
s(I95
I34
I1
I84
I46
tp80
I0
s(I16
I28
I1
I7
I35
tp81
I-100000
s(I84
I40
I1
I73
I52
tp82
I0
s(I61
I57
I1
I50
I66
tp83
I0
s(I61
I48
I0
I50
I37
tp84
I0
s(I118
I3
I1
I106
I13
tp85
I0
s(I39
I35
I1
I28
I44
tp86
I0
s(I16
I-19
I1
I7
I-13
tp87
I-100000
s(I16
I0
I1
I5
I9
tp88
I0
s(I50
I52
I0
I39
I41
tp89
I0
s(I28
I11
I0
I16
I18
tp90
I0
s(I129
I18
I1
I120
I25
tp91
I-100000
s(I106
I-8
I1
I95
I2
tp92
I0
s(I16
I12
I1
I5
I21
tp93
I0
s(I28
I51
I1
I16
I61
tp94
I0
s(I50
I21
I1
I39
I31
tp95
I0
s(I28
I13
I0
I16
I20
tp96
I0
s(I28
I63
I0
I25
I72
tp97
I-100000
s(I39
I21
I1
I28
I30
tp98
I0
s(I39
I55
I0
I28
I62
tp99
I0
s(I16
I16
I1
I6
I26
tp100
I-100000
s(I16
I60
I1
I7
I66
tp101
I-100000
s(I84
I48
I0
I73
I55
tp102
I0
s(I39
I58
I0
I28
I47
tp103
I0
s(I61
I61
I1
I50
I73
tp104
I-100000
s(I73
I29
I0
I61
I36
tp105
I0
s(I16
I13
I0
I5
I20
tp106
I0
s(I5
I4
I0
I129
I11
tp107
I0
s(I39
I6
I0
I28
I13
tp108
I0
s(I50
I51
I1
I39
I63
tp109
I0
s(I39
I31
I1
I28
I43
tp110
I0
s(I39
I53
I0
I28
I42
tp111
I0
s(I84
I28
I0
I73
I17
tp112
I0
s(I73
I-21
I0
I61
I-14
tp113
I0
s(I129
I22
I1
I124
I24
tp114
I-100000
s(I84
I9
I1
I73
I18
tp115
I0
s(I50
I35
I0
I39
I24
tp116
I0
s(I61
I-14
I1
I50
I-5
tp117
I0
s(I118
I22
I1
I115
I24
tp118
I100000
s(I16
I14
I1
I5
I23
tp119
I0
s(I5
I3
I1
I129
I12
tp120
I0
s(I5
I6
I0
I129
I13
tp121
I0
s(I28
I24
I0
I16
I31
tp122
I0
s(I61
I30
I1
I50
I42
tp123
I0
s(I16
I71
I0
I16
I73
tp124
I-100000
s(I118
I11
I1
I115
I13
tp125
I100000
s(I5
I14
I0
I1
I25
tp126
I-100000
s(I16
I-19
I0
I7
I-28
tp127
I-100000
s(I73
I17
I1
I61
I27
tp128
I0
s(I129
I23
I1
I128
I25
tp129
I-100000
s(I28
I50
I0
I16
I38
tp130
I0
s(I61
I9
I0
I50
I-2
tp131
I0
s(I50
I32
I1
I39
I41
tp132
I0
s(I39
I-36
I0
I28
I-48
tp133
I0
s(I28
I18
I1
I16
I30
tp134
I0
s(I28
I-32
I1
I16
I-23
tp135
I0
s(I39
I-19
I1
I28
I-10
tp136
I0
s(I73
I54
I0
I61
I60
tp137
I0
s(I39
I49
I0
I28
I37
tp138
I0
s(I16
I37
I0
I7
I28
tp139
I-100000
s(I61
I34
I1
I50
I47
tp140
I0
s(I73
I13
I0
I61
I1
tp141
I0
s(I95
I20
I1
I84
I29
tp142
I0
s(I28
I27
I0
I16
I34
tp143
I0
s(I28
I31
I0
I16
I20
tp144
I0
s(I106
I36
I1
I95
I48
tp145
I0
s(I16
I20
I0
I5
I9
tp146
I0
s(I28
I71
I0
I27
I73
tp147
I-100000
s(I73
I56
I0
I61
I63
tp148
I0
s(I50
I9
I0
I39
I-2
tp149
I0
s(I61
I63
I1
I50
I73
tp150
I-100000
s(I39
I7
I0
I28
I-5
tp151
I0
s(I84
I38
I0
I73
I45
tp152
I0
s(I129
I20
I1
I121
I25
tp153
I-100000
s(I39
I41
I1
I28
I50
tp154
I0
s(I28
I-3
I1
I16
I7
tp155
I0
s(I50
I37
I0
I39
I26
tp156
I0
s(I28
I30
I0
I16
I37
tp157
I0
s(I16
I5
I0
I7
I-4
tp158
I-100000
s(I16
I29
I1
I7
I34
tp159
I-100000
s(I39
I48
I1
I28
I60
tp160
I0
s(I28
I16
I0
I16
I23
tp161
I0
s(I73
I64
I1
I61
I73
tp162
I-100000
s(I5
I19
I0
I129
I8
tp163
I0
s(I39
I48
I0
I28
I55
tp164
I0
s(I16
I3
I1
I5
I12
tp165
I0
s(I39
I43
I0
I28
I50
tp166
I0
s(I39
I23
I0
I28
I29
tp167
I0
s(I73
I56
I0
I61
I45
tp168
I0
s(I28
I29
I1
I16
I41
tp169
I0
s(I16
I41
I0
I7
I49
tp170
I-100000
s(I16
I-12
I0
I7
I-22
tp171
I-100000
s(I84
I54
I1
I73
I66
tp172
I0
s(I50
I29
I0
I39
I36
tp173
I0
s(I106
I31
I1
I95
I40
tp174
I0
s(I16
I50
I1
I7
I56
tp175
I-100000
s(I50
I54
I0
I39
I61
tp176
I0
s(I50
I57
I0
I39
I64
tp177
I0
s(I28
I-20
I0
I16
I-31
tp178
I0
s(I50
I-4
I1
I39
I6
tp179
I0
s(I118
I24
I1
I106
I36
tp180
I0
s(I39
I4
I0
I28
I-7
tp181
I0
s(I5
I8
I0
I129
I14
tp182
I0
s(I118
I24
I0
I117
I26
tp183
I-100000
s(I39
I-27
I1
I28
I-15
tp184
I0
s(I16
I-5
I1
I5
I8
tp185
I0
s(I28
I38
I0
I16
I26
tp186
I0
s(I73
I59
I0
I61
I48
tp187
I0
s(I39
I40
I0
I28
I47
tp188
I0
s(I50
I49
I1
I39
I61
tp189
I0
s(I16
I-15
I0
I7
I-6
tp190
I-100000
s(I16
I50
I0
I7
I40
tp191
I-100000
s(I61
I22
I0
I50
I29
tp192
I0
s(I95
I20
I0
I84
I9
tp193
I0
s(I50
I24
I0
I39
I13
tp194
I0
s(I39
I-2
I0
I28
I-14
tp195
I0
s(I95
I29
I0
I84
I36
tp196
I0
s(I61
I33
I1
I50
I42
tp197
I0
s(I39
I19
I1
I28
I29
tp198
I0
s(I28
I32
I1
I16
I44
tp199
I0
s(I39
I18
I0
I28
I25
tp200
I0
s(I28
I29
I1
I16
I39
tp201
I0
s(I61
I50
I0
I50
I38
tp202
I0
s(I16
I11
I0
I5
I18
tp203
I0
s(I28
I45
I0
I16
I34
tp204
I0
s(I118
I12
I1
I115
I14
tp205
I100000
s(I5
I21
I1
I0
I24
tp206
I-100000
s(I50
I-16
I1
I39
I-3
tp207
I0
s(I95
I25
I1
I84
I37
tp208
I0
s(I73
I42
I1
I61
I52
tp209
I0
s(I39
I27
I1
I28
I37
tp210
I0
s(I84
I14
I1
I73
I26
tp211
I0
s(I28
I-28
I1
I16
I-18
tp212
I0
s(I16
I-3
I1
I5
I6
tp213
I0
s(I16
I42
I1
I7
I48
tp214
I-100000
s(I95
I43
I1
I84
I52
tp215
I0
s(I106
I30
I0
I95
I37
tp216
I0
s(I73
I8
I1
I61
I17
tp217
I0
s(I16
I53
I1
I7
I62
tp218
I-100000
s(I39
I68
I1
I32
I72
tp219
I-100000
s(I73
I59
I1
I61
I69
tp220
I0
s(I39
I12
I1
I28
I24
tp221
I0
s(I61
I27
I1
I50
I39
tp222
I0
s(I16
I44
I0
I7
I52
tp223
I-100000
s(I73
I66
I0
I70
I72
tp224
I-100000
s(I118
I13
I0
I106
I20
tp225
I0
s(I73
I54
I1
I61
I66
tp226
I0
s(I28
I63
I1
I17
I73
tp227
I-100000
s(I28
I34
I0
I16
I23
tp228
I0
s(I73
I21
I0
I61
I9
tp229
I0
s(I16
I23
I0
I5
I12
tp230
I0
s(I5
I23
I1
I4
I25
tp231
I-100000
s(I61
I29
I1
I50
I39
tp232
I0
s(I129
I21
I1
I123
I24
tp233
I-100000
s(I16
I21
I1
I7
I29
tp234
I-100000
s(I95
I40
I1
I84
I52
tp235
I0
s(I16
I8
I0
I6
I-3
tp236
I-100000
s(I50
I-5
I0
I39
I-17
tp237
I0
s(I95
I40
I0
I84
I47
tp238
I0
s(I84
I35
I1
I73
I47
tp239
I0
s(I16
I31
I0
I5
I20
tp240
I0
s(I50
I70
I1
I49
I72
tp241
I-100000
s(I129
I7
I1
I118
I16
tp242
I0
s(I61
I45
I0
I50
I33
tp243
I0
s(I84
I52
I0
I73
I59
tp244
I0
s(I16
I29
I0
I5
I18
tp245
I0
s(I39
I56
I1
I28
I66
tp246
I0
s(I16
I55
I0
I7
I63
tp247
I-100000
s(I39
I26
I1
I28
I35
tp248
I0
s(I39
I63
I0
I36
I72
tp249
I-100000
s(I39
I4
I0
I28
I11
tp250
I0
s(I50
I56
I1
I39
I68
tp251
I0
s(I16
I59
I0
I7
I49
tp252
I-100000
s(I28
I14
I1
I16
I24
tp253
I0
s(I16
I-26
I1
I7
I-17
tp254
I-100000
s(I95
I25
I0
I84
I32
tp255
I0
s(I61
I42
I1
I50
I51
tp256
I0
s(I39
I54
I0
I28
I61
tp257
I0
s(I50
I14
I1
I39
I23
tp258
I0
s(I16
I40
I1
I7
I46
tp259
I-100000
s(I39
I52
I0
I28
I59
tp260
I0
s(I61
I57
I0
I50
I46
tp261
I0
s(I50
I18
I1
I39
I27
tp262
I0
s(I73
I45
I1
I61
I54
tp263
I0
s(I61
I25
I1
I50
I34
tp264
I0
s(I28
I2
I1
I16
I11
tp265
I0
s(I73
I56
I1
I61
I69
tp266
I0
s(I39
I6
I1
I28
I18
tp267
I0
s(I28
I-4
I1
I16
I8
tp268
I0
s(I84
I28
I1
I73
I38
tp269
I0
s(I16
I62
I1
I7
I71
tp270
I-100000
s(I50
I-10
I1
I39
I-1
tp271
I0
s(I73
I71
I0
I72
I73
tp272
I-100000
s(I5
I20
I0
I4
I24
tp273
I-100000
s(I0
I0
I0
I129
I12
tp274
I0
s(I73
I31
I0
I61
I20
tp275
I0
s(I28
I16
I1
I16
I25
tp276
I0
s(I50
I64
I1
I40
I72
tp277
I-100000
s(I16
I-3
I1
I5
I9
tp278
I0
s(I118
I3
I1
I115
I3
tp279
I100000
s(I73
I58
I1
I61
I67
tp280
I0
s(I118
I10
I1
I115
I12
tp281
I100000
s(I16
I51
I0
I7
I41
tp282
I-100000
s(I95
I19
I1
I84
I29
tp283
I0
s(I106
I24
I0
I95
I30
tp284
I0
s(I16
I70
I1
I16
I72
tp285
I-100000
s(I50
I65
I1
I41
I72
tp286
I-100000
s(I95
I29
I1
I84
I41
tp287
I0
s(I95
I31
I1
I84
I40
tp288
I0
s(I61
I25
I0
I50
I14
tp289
I0
s(I106
I20
I1
I95
I29
tp290
I0
s(I39
I4
I1
I28
I13
tp291
I0
s(I5
I8
I1
I129
I20
tp292
I0
s(I28
I-5
I1
I16
I5
tp293
I0
s(I28
I11
I1
I16
I24
tp294
I0
s(I61
I42
I0
I50
I31
tp295
I0
s(I50
I20
I0
I39
I8
tp296
I0
s(I5
I11
I0
I1
I24
tp297
I-100000
s(I39
I29
I1
I28
I41
tp298
I0
s(I16
I34
I0
I7
I43
tp299
I-100000
s(I61
I-32
I1
I50
I-20
tp300
I0
s(I61
I26
I1
I50
I36
tp301
I0
s(I73
I-14
I1
I61
I-4
tp302
I0
s(I84
I51
I0
I73
I58
tp303
I0
s(I73
I58
I1
I61
I70
tp304
I0
s(I129
I12
I0
I118
I3
tp305
I0
s(I50
I57
I1
I39
I69
tp306
I0
s(I73
I61
I0
I61
I50
tp307
I0
s(I28
I69
I1
I22
I72
tp308
I-100000
s(I61
I59
I1
I50
I68
tp309
I0
s(I16
I48
I1
I7
I54
tp310
I-100000
s(I118
I2
I1
I106
I11
tp311
I0
s(I50
I51
I0
I39
I58
tp312
I0
s(I61
I50
I0
I50
I57
tp313
I0
s(I39
I57
I1
I28
I66
tp314
I0
s(I61
I-14
I0
I50
I-25
tp315
I0
s(I28
I58
I1
I16
I67
tp316
I0
s(I39
I41
I1
I28
I54
tp317
I0
s(I50
I8
I1
I39
I20
tp318
I0
s(I106
I22
I0
I95
I29
tp319
I0
s(I95
I29
I1
I84
I38
tp320
I0
s(I5
I1
I0
I2
I-2
tp321
I-100000
s(I16
I14
I0
I5
I3
tp322
I0
s(I84
I53
I0
I73
I42
tp323
I0
s(I28
I14
I0
I16
I3
tp324
I0
s(I95
I45
I0
I84
I52
tp325
I0
s(I73
I45
I0
I61
I34
tp326
I0
s(I16
I17
I1
I6
I28
tp327
I-100000
s(I50
I20
I1
I39
I29
tp328
I0
s(I84
I44
I0
I73
I51
tp329
I0
s(I5
I15
I0
I129
I4
tp330
I0
s(I73
I53
I1
I61
I62
tp331
I0
s(I50
I66
I1
I42
I72
tp332
I-100000
s(I84
I24
I0
I73
I13
tp333
I0
s(I16
I59
I1
I7
I65
tp334
I-100000
s(I73
I53
I0
I61
I42
tp335
I0
s(I84
I49
I0
I73
I56
tp336
I0
s(I16
I67
I0
I14
I73
tp337
I-100000
s(I28
I23
I0
I16
I12
tp338
I0
s(I73
I36
I1
I61
I45
tp339
I0
s(I16
I52
I1
I7
I60
tp340
I-100000
s(I16
I46
I0
I7
I37
tp341
I-100000
s(I39
I56
I0
I28
I45
tp342
I0
s(I50
I64
I0
I47
I72
tp343
I-100000
s(I73
I19
I1
I61
I28
tp344
I0
s(I95
I2
I1
I84
I14
tp345
I0
s(I16
I42
I0
I7
I33
tp346
I-100000
s(I61
I56
I0
I50
I63
tp347
I0
s(I73
I48
I0
I61
I37
tp348
I0
s(I61
I46
I1
I50
I56
tp349
I0
s(I95
I2
I0
I84
I9
tp350
I0
s(I61
I37
I1
I50
I46
tp351
I0
s(I39
I18
I1
I28
I30
tp352
I0
s(I16
I33
I0
I7
I41
tp353
I-100000
s(I28
I19
I0
I16
I26
tp354
I0
s(I16
I45
I1
I7
I54
tp355
I-100000
s(I73
I41
I1
I61
I53
tp356
I0
s(I50
I52
I1
I39
I62
tp357
I0
s(I118
I12
I1
I106
I24
tp358
I0
s(I28
I58
I0
I23
I72
tp359
I-100000
s(I61
I45
I0
I50
I52
tp360
I0
s(I16
I17
I0
I5
I24
tp361
I-100000
s(I39
I68
I0
I37
I72
tp362
I-100000
s(I73
I7
I0
I61
I14
tp363
I0
s(I39
I50
I1
I28
I59
tp364
I0
s(I39
I30
I0
I28
I19
tp365
I0
s(I39
I35
I0
I28
I23
tp366
I0
s(I28
I62
I1
I16
I71
tp367
I0
s(I16
I30
I0
I7
I38
tp368
I-100000
s(I61
I59
I0
I50
I48
tp369
I0
s(I28
I6
I1
I16
I16
tp370
I0
s(I16
I36
I0
I7
I45
tp371
I-100000
s(I73
I51
I1
I61
I61
tp372
I0
s(I61
I42
I0
I50
I49
tp373
I0
s(I28
I19
I1
I16
I28
tp374
I0
s(I95
I36
I0
I84
I43
tp375
I0
s(I39
I23
I1
I28
I35
tp376
I0
s(I73
I-3
I0
I61
I-14
tp377
I0
s(I129
I8
I1
I118
I18
tp378
I0
s(I61
I3
I1
I50
I12
tp379
I0
s(I61
I61
I0
I50
I49
tp380
I0
s(I61
I46
I0
I50
I35
tp381
I0
s(I39
I65
I0
I36
I74
tp382
I-100000
s(I61
I53
I1
I50
I65
tp383
I0
s(I16
I67
I1
I9
I72
tp384
I-100000
s(I73
I40
I1
I61
I50
tp385
I0
s(I129
I10
I1
I118
I22
tp386
I0
s(I50
I50
I0
I39
I57
tp387
I0
s(I50
I29
I0
I39
I17
tp388
I0
s(I16
I69
I0
I15
I73
tp389
I-100000
s(I61
I58
I0
I50
I65
tp390
I0
s(I95
I35
I1
I84
I44
tp391
I0
s(I16
I5
I1
I5
I14
tp392
I0
s(I73
I30
I1
I61
I42
tp393
I0
s(I73
I7
I1
I61
I19
tp394
I0
s(I39
I2
I1
I28
I11
tp395
I0
s(I39
I-16
I0
I28
I-9
tp396
I0
s(I16
I13
I1
I5
I25
tp397
I-100000
s(I28
I30
I0
I16
I19
tp398
I0
s(I39
I39
I0
I28
I46
tp399
I0
s(I73
I58
I0
I68
I72
tp400
I-100000
s(I50
I3
I0
I39
I-9
tp401
I0
s(I39
I52
I1
I28
I64
tp402
I0
s(I28
I47
I0
I16
I54
tp403
I0
s(I61
I29
I0
I50
I18
tp404
I0
s(I118
I11
I1
I106
I23
tp405
I0
s(I50
I58
I1
I39
I68
tp406
I0
s(I106
I33
I1
I95
I45
tp407
I0
s(I73
I55
I1
I61
I64
tp408
I0
s(I95
I41
I0
I84
I30
tp409
I0
s(I28
I-1
I0
I16
I-12
tp410
I0
s(I73
I44
I0
I61
I33
tp411
I0
s(I106
I28
I1
I95
I40
tp412
I0
s(I50
I43
I0
I39
I50
tp413
I0
s(I16
I38
I0
I7
I29
tp414
I-100000
s(I39
I51
I1
I28
I63
tp415
I0
s(I39
I33
I1
I28
I43
tp416
I0
s(I61
I47
I1
I50
I59
tp417
I0
s(I28
I-1
I1
I16
I8
tp418
I0
s(I50
I47
I0
I39
I53
tp419
I0
s(I118
I11
I1
I106
I24
tp420
I0
s(I84
I51
I1
I73
I63
tp421
I0
s(I28
I69
I0
I26
I73
tp422
I-100000
s(I28
I22
I0
I16
I29
tp423
I0
s(I118
I10
I1
I106
I22
tp424
I0
s(I39
I41
I0
I28
I48
tp425
I0
s(I39
I65
I1
I30
I72
tp426
I-100000
s(I39
I61
I0
I28
I50
tp427
I0
s(I73
I35
I1
I61
I47
tp428
I0
s(I28
I46
I0
I16
I53
tp429
I0
s(I16
I5
I1
I5
I17
tp430
I0
s(I28
I50
I1
I16
I59
tp431
I0
s(I16
I35
I1
I7
I41
tp432
I-100000
s(I28
I-9
I1
I16
I0
tp433
I0
s(I61
I36
I1
I50
I45
tp434
I0
s(I50
I-16
I0
I39
I-9
tp435
I0
s(I16
I36
I0
I5
I24
tp436
I-100000
s(I28
I39
I0
I16
I46
tp437
I0
s(I95
I31
I0
I84
I19
tp438
I0
s(I61
I45
I1
I50
I57
tp439
I0
s(I95
I35
I0
I84
I24
tp440
I0
s(I28
I37
I0
I16
I43
tp441
I0
s(I5
I7
I0
I-4
I-2
tp442
I-100000
s(I84
I30
I1
I73
I39
tp443
I0
s(I50
I58
I0
I39
I47
tp444
I0
s(I50
I56
I0
I39
I63
tp445
I0
s(I28
I42
I0
I16
I31
tp446
I0
s(I28
I30
I1
I16
I39
tp447
I0
s(I106
I33
I0
I95
I40
tp448
I0
s(I28
I54
I1
I16
I66
tp449
I0
s(I5
I13
I1
I129
I23
tp450
I0
s(I28
I24
I1
I16
I36
tp451
I0
s(I61
I-32
I0
I50
I-25
tp452
I0
s(I39
I-1
I1
I28
I11
tp453
I0
s(I39
I25
I1
I28
I35
tp454
I0
s(I50
I68
I1
I43
I72
tp455
I-100000
s(I28
I42
I1
I16
I52
tp456
I0
s(I28
I51
I0
I16
I40
tp457
I0
s(I84
I49
I0
I73
I38
tp458
I0
s(I129
I4
I1
I118
I13
tp459
I0
s(I73
I55
I0
I61
I43
tp460
I0
s(I28
I25
I1
I16
I34
tp461
I0
s(I61
I8
I0
I50
I-4
tp462
I0
s(I118
I16
I1
I115
I18
tp463
I100000
s(I106
I13
I0
I95
I19
tp464
I0
s(I73
I8
I0
I61
I-3
tp465
I0
s(I28
I36
I1
I16
I45
tp466
I0
s(I39
I49
I1
I28
I58
tp467
I0
s(I129
I0
I1
I118
I10
tp468
I0
s(I118
I22
I1
I106
I34
tp469
I0
s(I39
I62
I0
I35
I73
tp470
I-100000
s(I5
I19
I0
I3
I25
tp471
I-100000
s(I39
I30
I1
I28
I39
tp472
I0
s(I50
I53
I1
I39
I65
tp473
I0
s(I84
I59
I0
I79
I72
tp474
I-100000
s(I28
I59
I1
I16
I69
tp475
I0
s(I16
I-25
I1
I7
I-19
tp476
I-100000
s(I5
I7
I1
I129
I17
tp477
I0
s(I28
I64
I1
I16
I73
tp478
I-100000
s(I16
I2
I0
I5
I9
tp479
I0
s(I16
I-5
I1
I5
I4
tp480
I0
s(I39
I35
I0
I28
I42
tp481
I0
s(I39
I26
I0
I28
I14
tp482
I0
s(I61
I64
I0
I58
I73
tp483
I-100000
s(I84
I-30
I1
I73
I-21
tp484
I0
s(I16
I54
I1
I7
I60
tp485
I-100000
s(I61
I1
I0
I50
I-10
tp486
I0
s(I5
I6
I1
I129
I18
tp487
I0
s(I28
I7
I1
I16
I19
tp488
I0
s(I28
I44
I0
I16
I51
tp489
I0
s(I50
I-2
I0
I39
I-13
tp490
I0
s(I95
I-19
I1
I84
I-10
tp491
I0
s(I5
I23
I0
I4
I25
tp492
I-100000
s(I39
I52
I0
I28
I41
tp493
I0
s(I50
I-2
I1
I39
I7
tp494
I0
s(I28
I17
I1
I16
I30
tp495
I0
s(I5
I3
I0
I1
I-2
tp496
I-100000
s(I28
I41
I0
I16
I29
tp497
I0
s(I28
I52
I0
I16
I59
tp498
I0
s(I61
I62
I0
I58
I73
tp499
I-100000
s(I73
I51
I0
I61
I40
tp500
I0
s(I61
I70
I1
I61
I72
tp501
I-100000
s(I61
I14
I1
I50
I27
tp502
I0
s(I73
I63
I0
I70
I72
tp503
I-100000
s(I50
I-25
I0
I39
I-36
tp504
I0
s(I118
I3
I0
I106
I-8
tp505
I0
s(I39
I44
I0
I28
I51
tp506
I0
s(I50
I63
I0
I39
I52
tp507
I0
s(I39
I7
I1
I28
I19
tp508
I0
s(I50
I17
I1
I39
I29
tp509
I0
s(I61
I1
I1
I50
I11
tp510
I0
s(I28
I61
I0
I16
I50
tp511
I0
s(I39
I34
I1
I28
I46
tp512
I0
s(I129
I21
I0
I127
I25
tp513
I-100000
s(I73
I49
I1
I61
I61
tp514
I0
s(I5
I17
I1
I-5
I26
tp515
I-100000
s(I84
I-30
I0
I73
I-42
tp516
I0
s(I16
I46
I1
I7
I52
tp517
I-100000
s(I73
I38
I0
I61
I26
tp518
I0
s(I61
I28
I1
I50
I40
tp519
I0
s(I16
I59
I0
I12
I73
tp520
I-100000
s(I61
I35
I0
I50
I24
tp521
I0
s(I129
I17
I1
I119
I25
tp522
I-100000
s(I28
I-7
I1
I16
I2
tp523
I0
s(I16
I32
I0
I7
I40
tp524
I-100000
s(I28
I11
I0
I16
I0
tp525
I0
s(I50
I-8
I0
I39
I-19
tp526
I0
s(I28
I41
I0
I16
I48
tp527
I0
s(I61
I54
I1
I50
I66
tp528
I0
s(I28
I31
I1
I16
I41
tp529
I0
s(I61
I63
I0
I50
I52
tp530
I0
s(I39
I10
I1
I28
I19
tp531
I0
s(I16
I19
I0
I7
I28
tp532
I-100000
s(I50
I14
I0
I39
I2
tp533
I0
s(I16
I-20
I1
I7
I-14
tp534
I-100000
s(I50
I43
I1
I39
I55
tp535
I0
s(I16
I8
I0
I5
I15
tp536
I0
s(I118
I18
I1
I115
I20
tp537
I100000
s(I39
I64
I1
I28
I72
tp538
I-100000
s(I39
I69
I1
I36
I72
tp539
I-100000
s(I16
I-38
I0
I7
I-30
tp540
I-100000
s(I39
I29
I0
I28
I36
tp541
I0
s(I50
I9
I0
I39
I-3
tp542
I0
s(I39
I34
I0
I28
I41
tp543
I0
s(I73
I52
I1
I61
I64
tp544
I0
s(I28
I-27
I0
I16
I-20
tp545
I0
s(I61
I38
I1
I50
I50
tp546
I0
s(I61
I38
I0
I50
I45
tp547
I0
s(I50
I49
I1
I39
I59
tp548
I0
s(I28
I55
I0
I16
I43
tp549
I0
s(I28
I39
I1
I16
I52
tp550
I0
s(I73
I19
I0
I61
I7
tp551
I0
s(I16
I56
I1
I7
I65
tp552
I-100000
s(I28
I64
I0
I25
I73
tp553
I-100000
s(I39
I54
I1
I28
I66
tp554
I0
s(I16
I26
I1
I7
I31
tp555
I-100000
s(I129
I23
I0
I128
I25
tp556
I-100000
s(I39
I43
I1
I28
I55
tp557
I0
s(I50
I30
I0
I39
I19
tp558
I0
s(I28
I39
I0
I16
I28
tp559
I0
s(I28
I57
I0
I16
I63
tp560
I0
s(I28
I29
I0
I16
I36
tp561
I0
s(I73
I47
I0
I61
I36
tp562
I0
s(I84
I60
I1
I73
I72
tp563
I-100000
s(I129
I13
I0
I118
I2
tp564
I0
s(I39
I46
I0
I28
I53
tp565
I0
s(I84
I48
I1
I73
I60
tp566
I0
s(I28
I-7
I0
I16
I0
tp567
I0
s(I28
I48
I0
I16
I37
tp568
I0
s(I16
I62
I0
I13
I74
tp569
I-100000
s(I5
I12
I0
I129
I0
tp570
I0
s(I61
I9
I1
I50
I19
tp571
I0
s(I28
I9
I1
I16
I21
tp572
I0
s(I16
I48
I0
I7
I57
tp573
I-100000
s(I28
I22
I1
I16
I34
tp574
I0
s(I61
I34
I0
I50
I41
tp575
I0
s(I84
I43
I0
I73
I31
tp576
I0
s(I39
I19
I0
I28
I8
tp577
I0
s(I28
I25
I0
I16
I14
tp578
I0
s(I61
I60
I1
I50
I70
tp579
I0
s(I28
I48
I1
I16
I58
tp580
I0
s(I39
I-2
I1
I28
I7
tp581
I0
s(I50
I37
I0
I39
I25
tp582
I0
s(I16
I-39
I1
I7
I-33
tp583
I-100000
s(I16
I54
I1
I7
I63
tp584
I-100000
s(I16
I66
I1
I8
I72
tp585
I-100000
s(I5
I17
I0
I2
I26
tp586
I-100000
s(I16
I0
I1
I5
I12
tp587
I0
s(I39
I27
I0
I28
I16
tp588
I0
s(I129
I16
I0
I126
I25
tp589
I-100000
s(I28
I10
I1
I16
I19
tp590
I0
s(I73
I64
I1
I64
I72
tp591
I-100000
s(I39
I13
I0
I28
I2
tp592
I0
s(I16
I32
I1
I7
I40
tp593
I-100000
s(I73
I50
I1
I61
I62
tp594
I0
s(I50
I35
I1
I39
I44
tp595
I0
s(I50
I54
I0
I39
I43
tp596
I0
s(I84
I24
I0
I73
I12
tp597
I0
s(I5
I7
I1
I129
I16
tp598
I0
s(I50
I31
I0
I39
I19
tp599
I0
s(I73
I25
I0
I61
I14
tp600
I0
s(I61
I17
I1
I50
I29
tp601
I0
s(I61
I67
I0
I59
I73
tp602
I-100000
s(I5
I13
I0
I129
I2
tp603
I0
s(I61
I52
I1
I50
I64
tp604
I0
s(I16
I-5
I0
I7
I-15
tp605
I-100000
s(I61
I61
I0
I58
I72
tp606
I-100000
s(I73
I19
I0
I61
I8
tp607
I0
s(I106
I28
I0
I95
I35
tp608
I0
s(I39
I45
I1
I28
I55
tp609
I0
s(I28
I67
I0
I26
I72
tp610
I-100000
s(I39
I5
I1
I28
I17
tp611
I0
s(I16
I1
I0
I7
I-8
tp612
I-100000
s(I50
I15
I0
I39
I22
tp613
I0
s(I50
I63
I1
I39
I72
tp614
I-100000
s(I50
I34
I0
I39
I41
tp615
I0
s(I50
I32
I0
I39
I21
tp616
I0
s(I16
I53
I0
I7
I62
tp617
I-100000
s(I106
I13
I1
I95
I25
tp618
I0
s(I16
I1
I1
I5
I11
tp619
I0
s(I28
I6
I0
I16
I-5
tp620
I0
s(I106
I34
I0
I95
I41
tp621
I0
s(I95
I23
I1
I84
I35
tp622
I0
s(I28
I37
I0
I16
I26
tp623
I0
s(I73
I39
I0
I61
I46
tp624
I0
s(I50
I3
I1
I39
I12
tp625
I0
s(I50
I46
I0
I39
I53
tp626
I0
s(I95
I9
I1
I84
I18
tp627
I0
s(I5
I23
I0
I129
I11
tp628
I0
s(I84
I32
I1
I73
I41
tp629
I0
s(I39
I51
I0
I28
I58
tp630
I0
s(I129
I12
I0
I124
I26
tp631
I-100000
s(I73
I14
I1
I61
I24
tp632
I0
s(I95
I48
I1
I84
I60
tp633
I0
s(I61
I-4
I0
I50
I3
tp634
I0
s(I73
I35
I0
I61
I42
tp635
I0
s(I5
I18
I0
I129
I7
tp636
I0
s(I95
I48
I0
I84
I55
tp637
I0
s(I95
I47
I1
I84
I59
tp638
I0
s(I16
I57
I0
I7
I47
tp639
I-100000
s(I16
I8
I1
I5
I20
tp640
I0
s(I73
I54
I0
I61
I61
tp641
I0
s(I39
I49
I0
I28
I38
tp642
I0
s(I28
I53
I1
I16
I62
tp643
I0
s(I16
I-12
I1
I7
I-8
tp644
I-100000
s(I39
I22
I0
I28
I11
tp645
I0
s(I28
I-10
I1
I16
I2
tp646
I0
s(I73
I44
I1
I61
I53
tp647
I0
s(I73
I18
I1
I61
I30
tp648
I0
s(I50
I31
I1
I39
I40
tp649
I0
s(I61
I14
I1
I50
I23
tp650
I0
s(I106
I36
I0
I95
I43
tp651
I0
s(I28
I43
I1
I16
I55
tp652
I0
s(I28
I32
I0
I16
I38
tp653
I0
s(I61
I3
I0
I50
I-8
tp654
I0
s(I61
I33
I0
I50
I21
tp655
I0
s(I16
I39
I0
I7
I48
tp656
I-100000
s(I84
I26
I0
I73
I14
tp657
I0
s(I106
I30
I1
I95
I42
tp658
I0
s(I73
I30
I0
I61
I37
tp659
I0
s(I84
I52
I0
I73
I40
tp660
I0
s(I61
I-9
I0
I50
I-2
tp661
I0
s(I16
I53
I1
I7
I58
tp662
I-100000
s(I61
I56
I1
I50
I68
tp663
I0
s(I50
I-5
I1
I39
I4
tp664
I0
s(I50
I46
I0
I39
I35
tp665
I0
s(I39
I-47
I1
I28
I-38
tp666
I0
s(I28
I64
I1
I19
I72
tp667
I-100000
s(I39
I43
I0
I28
I31
tp668
I0
s(I28
I47
I1
I16
I56
tp669
I0
s(I84
I36
I1
I73
I46
tp670
I0
s(I16
I34
I1
I7
I43
tp671
I-100000
s(I16
I24
I0
I7
I33
tp672
I-100000
s(I16
I39
I0
I7
I47
tp673
I-100000
s(I50
I33
I1
I39
I43
tp674
I0
s(I5
I2
I1
I129
I14
tp675
I0
s(I50
I15
I1
I39
I27
tp676
I0
s(I16
I63
I1
I7
I69
tp677
I-100000
s(I84
I-2
I1
I73
I7
tp678
I0
s(I16
I54
I0
I7
I45
tp679
I-100000
s(I16
I59
I1
I7
I68
tp680
I-100000
s(I39
I25
I0
I28
I14
tp681
I0
s(I73
I46
I1
I61
I58
tp682
I0
s(I50
I60
I0
I39
I49
tp683
I0
s(I39
I60
I0
I28
I48
tp684
I0
s(I84
I44
I1
I73
I56
tp685
I0
s(I50
I57
I0
I39
I45
tp686
I0
s(I50
I42
I1
I39
I54
tp687
I0
s(I61
I50
I1
I50
I59
tp688
I0
s(I129
I13
I1
I118
I22
tp689
I0
s(I95
I-19
I0
I84
I-30
tp690
I0
s(I28
I44
I1
I16
I56
tp691
I0
s(I16
I-2
I1
I5
I8
tp692
I0
s(I28
I35
I0
I16
I42
tp693
I0
s(I16
I34
I1
I7
I40
tp694
I-100000
s(I39
I36
I1
I28
I46
tp695
I0
s(I50
I59
I1
I39
I71
tp696
I0
s(I84
I26
I1
I73
I35
tp697
I0
s(I16
I19
I1
I7
I28
tp698
I-100000
s(I84
I54
I0
I73
I61
tp699
I0
s(I28
I50
I0
I16
I39
tp700
I0
s(I61
I7
I1
I50
I19
tp701
I0
s(I95
I20
I0
I84
I8
tp702
I0
s(I39
I63
I1
I29
I72
tp703
I-100000
s(I84
I52
I1
I73
I64
tp704
I0
s(I5
I1
I1
I129
I10
tp705
I0
s(I84
I41
I1
I73
I54
tp706
I0
s(I50
I70
I0
I49
I72
tp707
I-100000
s(I61
I24
I0
I50
I31
tp708
I0
s(I16
I64
I1
I7
I73
tp709
I-100000
s(I50
I15
I1
I39
I24
tp710
I0
s(I28
I55
I1
I16
I64
tp711
I0
s(I50
I36
I0
I39
I43
tp712
I0
s(I28
I34
I1
I16
I44
tp713
I0
s(I28
I16
I0
I16
I5
tp714
I0
s(I16
I37
I1
I7
I43
tp715
I-100000
s(I84
I19
I0
I73
I8
tp716
I0
s(I16
I41
I1
I7
I49
tp717
I-100000
s(I129
I15
I1
I118
I24
tp718
I0
s(I73
I60
I1
I61
I72
tp719
I-100000
s(I95
I29
I1
I84
I42
tp720
I0
s(I16
I28
I0
I7
I37
tp721
I-100000
s(I73
I36
I0
I61
I25
tp722
I0
s(I73
I69
I1
I67
I72
tp723
I-100000
s(I39
I13
I1
I28
I22
tp724
I0
s(I84
I-10
I1
I73
I2
tp725
I0
s(I73
I47
I1
I61
I59
tp726
I0
s(I50
I45
I0
I39
I33
tp727
I0
s(I84
I14
I0
I73
I21
tp728
I0
s(I61
I26
I0
I50
I15
tp729
I0
s(I28
I-4
I0
I16
I3
tp730
I0
s(I50
I23
I1
I39
I35
tp731
I0
s(I28
I36
I0
I16
I25
tp732
I0
s(I73
I25
I1
I61
I34
tp733
I0
s(I73
I50
I0
I61
I57
tp734
I0
s(I61
I52
I0
I50
I58
tp735
I0
s(I39
I59
I1
I28
I71
tp736
I0
s(I50
I27
I1
I39
I39
tp737
I0
s(I129
I2
I1
I118
I12
tp738
I0
s(I16
I42
I0
I7
I51
tp739
I-100000
s(I84
I43
I1
I73
I52
tp740
I0
s(I39
I-3
I0
I28
I-14
tp741
I0
s(I50
I49
I0
I39
I56
tp742
I0
s(I50
I47
I1
I39
I59
tp743
I0
s(I16
I34
I0
I5
I23
tp744
I0
s(I50
I48
I0
I39
I36
tp745
I0
s(I50
I21
I0
I39
I10
tp746
I0
s(I39
I20
I1
I28
I32
tp747
I0
s(I5
I12
I1
I129
I24
tp748
I-100000
s(I28
I55
I0
I16
I62
tp749
I0
s(I39
I24
I0
I28
I13
tp750
I0
s(I28
I-9
I0
I16
I-20
tp751
I0
s(I16
I39
I1
I7
I47
tp752
I-100000
s(I16
I47
I0
I7
I55
tp753
I-100000
s(I84
I53
I1
I73
I63
tp754
I0
s(I84
I47
I0
I73
I36
tp755
I0
s(I39
I38
I1
I28
I47
tp756
I0
s(I16
I-39
I0
I7
I-49
tp757
I-100000
s(I50
I-20
I1
I39
I-8
tp758
I0
s(I84
I40
I0
I73
I47
tp759
I0
s(I84
I47
I1
I73
I56
tp760
I0
s(I84
I9
I0
I73
I-3
tp761
I0
s(I50
I23
I0
I39
I30
tp762
I0
s(I129
I20
I0
I127
I26
tp763
I-100000
s(I84
I37
I1
I73
I49
tp764
I0
s(I61
I6
I0
I50
I-5
tp765
I0
s(I39
I-9
I0
I28
I-20
tp766
I0
s(I5
I9
I0
I-5
I-2
tp767
I-100000
s(I61
I43
I0
I50
I32
tp768
I0
s(I16
I49
I1
I7
I57
tp769
I-100000
s(I73
I18
I0
I61
I25
tp770
I0
s(I84
I41
I0
I73
I48
tp771
I0
s(I16
I-20
I0
I7
I-30
tp772
I-100000
s(I28
I66
I1
I19
I72
tp773
I-100000
s(I28
I59
I0
I16
I48
tp774
I0
s(I84
I-10
I0
I73
I-3
tp775
I0
s(I28
I53
I0
I16
I42
tp776
I0
s(I28
I1
I1
I16
I13
tp777
I0
s(I16
I18
I1
I6
I26
tp778
I-100000
s(I50
I13
I0
I39
I2
tp779
I0
s(I106
I11
I1
I95
I23
tp780
I0
s(I5
I9
I1
I129
I21
tp781
I0
s(I61
I6
I1
I50
I15
tp782
I0
s(I28
I19
I1
I16
I32
tp783
I0
s(I28
I41
I1
I16
I53
tp784
I0
s(I39
I12
I0
I28
I19
tp785
I0
s(I16
I28
I0
I5
I16
tp786
I0
s(I84
I18
I0
I73
I25
tp787
I0
s(I16
I39
I1
I7
I45
tp788
I-100000
s(I73
I41
I0
I61
I48
tp789
I0
s(I39
I61
I0
I35
I73
tp790
I-100000
s(I28
I-27
I1
I16
I-15
tp791
I0
s(I73
I42
I0
I61
I31
tp792
I0
s(I61
I54
I0
I50
I61
tp793
I0
s(I16
I47
I1
I7
I56
tp794
I-100000
s(I61
I37
I1
I50
I47
tp795
I0
s(I73
I2
I1
I61
I14
tp796
I0
s(I106
I22
I1
I95
I34
tp797
I0
s(I16
I55
I1
I7
I63
tp798
I-100000
s(I50
I15
I0
I39
I4
tp799
I0
s(I84
I37
I0
I73
I44
tp800
I0
s(I16
I63
I0
I7
I54
tp801
I-100000
s(I39
I8
I0
I28
I-3
tp802
I0
s(I95
I30
I1
I84
I40
tp803
I0
s(I39
I47
I0
I28
I36
tp804
I0
s(I95
I42
I0
I84
I49
tp805
I0
s(I16
I40
I0
I7
I31
tp806
I-100000
s(I61
I42
I0
I50
I30
tp807
I0
s(I61
I53
I0
I50
I41
tp808
I0
s(I73
I17
I0
I61
I6
tp809
I0
s(I118
I24
I0
I106
I31
tp810
I0
s(I16
I18
I0
I5
I7
tp811
I0
s(I129
I7
I0
I120
I-2
tp812
I-100000
s(I16
I52
I0
I7
I60
tp813
I-100000
s(I50
I53
I0
I39
I60
tp814
I0
s(I84
I-2
I0
I73
I-14
tp815
I0
s(I16
I38
I1
I7
I44
tp816
I-100000
s(I84
I8
I1
I73
I18
tp817
I0
s(I28
I30
I1
I16
I42
tp818
I0
s(I50
I11
I0
I39
I18
tp819
I0
s(I28
I46
I1
I16
I58
tp820
I0
s(I50
I36
I1
I39
I48
tp821
I0
s(I39
I7
I1
I28
I16
tp822
I0
s(I73
I26
I1
I61
I38
tp823
I0
s(I5
I23
I1
I-2
I25
tp824
I-100000
s(I5
I16
I1
I129
I26
tp825
I-100000
s(I28
I60
I0
I23
I74
tp826
I-100000
s(I50
I54
I1
I39
I67
tp827
I0
s(I39
I71
I1
I38
I73
tp828
I-100000
s(I73
I52
I0
I61
I59
tp829
I0
s(I39
I-13
I0
I28
I-24
tp830
I0
s(I16
I30
I1
I7
I38
tp831
I-100000
s(I129
I16
I1
I119
I25
tp832
I-100000
s(I95
I47
I0
I84
I53
tp833
I0
s(I84
I46
I0
I73
I53
tp834
I0
s(I39
I-17
I0
I28
I-28
tp835
I0
s(I16
I25
I0
I5
I13
tp836
I0
s(I5
I8
I0
I129
I15
tp837
I0
s(I28
I64
I0
I16
I53
tp838
I0
s(I28
I50
I1
I16
I62
tp839
I0
s(I61
I36
I0
I50
I24
tp840
I0
s(I61
I25
I0
I50
I13
tp841
I0
s(I61
I66
I0
I59
I72
tp842
I-100000
s(I84
I29
I0
I73
I36
tp843
I0
s(I50
I-36
I1
I39
I-27
tp844
I0
s(I50
I65
I1
I40
I72
tp845
I-100000
s(I61
I58
I1
I50
I70
tp846
I0
s(I50
I26
I1
I39
I35
tp847
I0
s(I16
I26
I0
I5
I15
tp848
I0
s(I28
I66
I0
I25
I72
tp849
I-100000
s(I28
I-3
I0
I16
I-14
tp850
I0
s(I50
I-4
I1
I39
I5
tp851
I0
s(I50
I45
I0
I39
I52
tp852
I0
s(I39
I-21
I1
I28
I-12
tp853
I0
s(I39
I-1
I0
I28
I6
tp854
I0
s(I106
I20
I0
I95
I9
tp855
I0
s(I16
I62
I0
I13
I73
tp856
I-100000
s(I28
I71
I1
I27
I73
tp857
I-100000
s(I16
I-3
I0
I7
I-13
tp858
I-100000
s(I16
I23
I1
I7
I29
tp859
I-100000
s(I118
I18
I1
I106
I30
tp860
I0
s(I16
I48
I0
I7
I38
tp861
I-100000
s(I28
I1
I0
I16
I8
tp862
I0
s(I16
I33
I1
I7
I41
tp863
I-100000
s(I50
I66
I0
I48
I73
tp864
I-100000
s(I50
I6
I1
I39
I18
tp865
I0
s(I16
I-25
I0
I7
I-35
tp866
I-100000
s(I61
I69
I1
I55
I72
tp867
I-100000
s(I50
I65
I0
I39
I53
tp868
I0
s(I16
I45
I0
I7
I54
tp869
I-100000
s(I5
I14
I1
I-5
I24
tp870
I-100000
s(I28
I7
I0
I16
I14
tp871
I0
s(I129
I15
I0
I118
I3
tp872
I0
s(I16
I64
I0
I13
I73
tp873
I-100000
s(I16
I7
I1
I5
I19
tp874
I0
s(I84
I24
I1
I73
I33
tp875
I0
s(I16
I19
I1
I6
I26
tp876
I-100000
s(I118
I21
I1
I106
I33
tp877
I0
s(I106
I24
I0
I95
I31
tp878
I0
s(I39
I69
I0
I37
I74
tp879
I-100000
s(I28
I54
I0
I16
I60
tp880
I0
s(I73
I69
I0
I71
I73
tp881
I-100000
s(I95
I43
I0
I84
I32
tp882
I0
s(I16
I-14
I0
I7
I-24
tp883
I-100000
s(I39
I35
I1
I28
I47
tp884
I0
s(I39
I10
I0
I28
I-1
tp885
I0
s(I50
I31
I0
I39
I38
tp886
I0
s(I28
I67
I0
I25
I74
tp887
I-100000
s(I16
I-4
I1
I5
I8
tp888
I0
s(I16
I44
I1
I7
I53
tp889
I-100000
s(I39
I46
I1
I28
I58
tp890
I0
s(I39
I63
I0
I28
I51
tp891
I0
s(I61
I64
I1
I52
I73
tp892
I-100000
s(I118
I24
I1
I117
I26
tp893
I-100000
s(I28
I-12
I0
I16
I-5
tp894
I0
s(I16
I-18
I0
I7
I-9
tp895
I-100000
s(I129
I14
I1
I118
I26
tp896
I-100000
s(I50
I42
I0
I39
I49
tp897
I0
s(I16
I54
I0
I7
I63
tp898
I-100000
s(I50
I33
I0
I39
I22
tp899
I0
s(I16
I25
I0
I7
I34
tp900
I-100000
s(I50
I34
I1
I39
I46
tp901
I0
s(I95
I40
I1
I84
I49
tp902
I0
s(I73
I36
I0
I61
I24
tp903
I0
s(I16
I-11
I1
I5
I2
tp904
I0
s(I28
I38
I1
I16
I47
tp905
I0
s(I39
I60
I1
I28
I69
tp906
I0
s(I28
I19
I0
I16
I8
tp907
I0
s(I28
I-24
I1
I16
I-15
tp908
I0
s(I73
I2
I0
I61
I9
tp909
I0
s(I50
I71
I1
I49
I73
tp910
I-100000
s(I118
I16
I1
I106
I28
tp911
I0
s(I39
I31
I0
I28
I38
tp912
I0
s(I50
I19
I1
I39
I31
tp913
I0
s(I39
I1
I1
I28
I13
tp914
I0
s(I50
I60
I1
I39
I69
tp915
I0
s(I84
I42
I1
I73
I54
tp916
I0
s(I61
I69
I0
I60
I73
tp917
I-100000
s(I73
I14
I0
I61
I3
tp918
I0
s(I61
I43
I1
I50
I53
tp919
I0
s(I50
I41
I1
I39
I51
tp920
I0
s(I16
I36
I1
I7
I45
tp921
I-100000
s(I39
I-16
I1
I28
I-4
tp922
I0
s(I16
I49
I0
I7
I57
tp923
I-100000
s(I61
I20
I0
I50
I9
tp924
I0
s(I28
I35
I1
I16
I47
tp925
I0
s(I61
I30
I0
I50
I37
tp926
I0
s(I73
I47
I0
I61
I35
tp927
I0
s(I129
I12
I1
I118
I24
tp928
I0
s(I50
I26
I0
I39
I15
tp929
I0
s(I73
I29
I1
I61
I41
tp930
I0
s(I16
I-18
I1
I7
I-11
tp931
I-100000
s(I5
I4
I1
I129
I16
tp932
I0
s(I106
I-8
I0
I95
I-19
tp933
I0
s(I61
I20
I1
I50
I29
tp934
I0
s(I84
I49
I1
I73
I58
tp935
I0
s(I16
I31
I0
I5
I19
tp936
I0
s(I61
I62
I0
I58
I74
tp937
I-100000
s(I129
I8
I0
I118
I-2
tp938
I-100000
s(I84
I30
I0
I73
I19
tp939
I0
s(I16
I62
I1
I7
I68
tp940
I-100000
s(I95
I37
I0
I84
I26
tp941
I0
s(I39
I64
I0
I28
I53
tp942
I0
s(I28
I8
I0
I16
I-3
tp943
I0
s(I95
I45
I1
I84
I57
tp944
I0
s(I61
I19
I0
I50
I26
tp945
I0
s(I28
I50
I0
I16
I57
tp946
I0
s(I50
I11
I1
I39
I23
tp947
I0
s(I73
I33
I0
I61
I40
tp948
I0
s(I16
I-31
I1
I7
I-25
tp949
I-100000
s(I61
I7
I0
I50
I-4
tp950
I0
s(I39
I61
I1
I28
I72
tp951
I-100000
s(I73
I13
I1
I61
I22
tp952
I0
s(I50
I48
I1
I39
I57
tp953
I0
s(I129
I18
I0
I127
I25
tp954
I-100000
s(I50
I41
I0
I39
I30
tp955
I0
s(I16
I61
I0
I13
I72
tp956
I-100000
s(I106
I31
I0
I95
I20
tp957
I0
s(I39
I40
I1
I28
I52
tp958
I0
s(I28
I4
I1
I16
I16
tp959
I0
s(I5
I21
I0
I4
I25
tp960
I-100000
s(I39
I2
I0
I28
I-9
tp961
I0
s(I50
I61
I1
I39
I71
tp962
I0
s(I39
I59
I0
I34
I72
tp963
I-100000
s(I50
I40
I1
I39
I52
tp964
I0
s(I16
I0
I0
I7
I-9
tp965
I-100000
s(I73
I12
I0
I61
I1
tp966
I0
s(I61
I17
I0
I50
I24
tp967
I0
s(I84
I29
I1
I73
I41
tp968
I0
s(I84
I38
I1
I73
I50
tp969
I0
s(I50
I12
I1
I39
I24
tp970
I0
s(I73
I-42
I1
I61
I-32
tp971
I0
s(I118
I2
I1
I115
I1
tp972
I100000
s(I106
I23
I1
I95
I35
tp973
I0
s(I39
I-17
I1
I28
I-7
tp974
I0
s(I50
I39
I1
I39
I51
tp975
I0
s(I61
I59
I1
I50
I71
tp976
I0
s(I28
I-10
I0
I16
I-3
tp977
I0
s(I61
I-3
I1
I50
I6
tp978
I0
s(I16
I16
I0
I5
I23
tp979
I0
s(I61
I41
I1
I50
I53
tp980
I0
s(I16
I20
I1
I6
I28
tp981
I-100000
s(I28
I58
I1
I16
I70
tp982
I0
s(I50
I38
I0
I39
I27
tp983
I0
s(I16
I43
I0
I7
I34
tp984
I-100000
s(I129
I11
I1
I118
I21
tp985
I0
s(I50
I54
I1
I39
I63
tp986
I0
s(I106
I24
I1
I95
I36
tp987
I0
s(I39
I61
I1
I28
I71
tp988
I0
s(I28
I30
I0
I16
I18
tp989
I0
s(I16
I24
I1
I7
I31
tp990
I-100000
s(I5
I20
I0
I129
I8
tp991
I0
s(I16
I44
I1
I7
I52
tp992
I-100000
s(I39
I-21
I0
I28
I-32
tp993
I0
s(I28
I-7
I1
I16
I5
tp994
I0
s(I39
I27
I0
I28
I34
tp995
I0
s(I50
I29
I0
I39
I18
tp996
I0
s(I39
I43
I1
I28
I52
tp997
I0
s(I50
I-36
I0
I39
I-47
tp998
I0
s(I61
I42
I1
I50
I54
tp999
I0
s(I84
I42
I0
I73
I31
tp1000
I0
s(I61
I-25
I1
I50
I-16
tp1001
I0
s(I5
I20
I1
I-5
I26
tp1002
I-100000
s(I28
I10
I0
I16
I-2
tp1003
I0
s(I39
I58
I1
I28
I67
tp1004
I0
s(I16
I51
I1
I7
I57
tp1005
I-100000
s(I73
I38
I1
I61
I50
tp1006
I0
s(I28
I61
I1
I16
I70
tp1007
I0
s(I39
I8
I1
I28
I18
tp1008
I0
s(I16
I8
I1
I5
I17
tp1009
I0
s(I73
I60
I0
I68
I73
tp1010
I-100000
s(I39
I-36
I1
I28
I-27
tp1011
I0
s(I28
I-28
I0
I16
I-39
tp1012
I0
s(I129
I2
I0
I125
I-2
tp1013
I-100000
s(I61
I62
I1
I51
I73
tp1014
I-100000
s(I5
I18
I1
I-5
I26
tp1015
I-100000
s(I61
I41
I0
I50
I48
tp1016
I0
s(I129
I2
I1
I118
I11
tp1017
I0
s(I50
I12
I0
I39
I19
tp1018
I0
s(I50
I40
I0
I39
I47
tp1019
I0
s(I16
I-23
I1
I7
I-14
tp1020
I-100000
s(I61
I24
I1
I50
I36
tp1021
I0
s(I28
I37
I1
I16
I49
tp1022
I0
s(I61
I67
I1
I54
I72
tp1023
I-100000
s(I16
I3
I0
I7
I-6
tp1024
I-100000
s(I16
I2
I1
I5
I14
tp1025
I0
s(I61
I14
I0
I50
I3
tp1026
I0
s(I16
I7
I0
I5
I13
tp1027
I0
s(I39
I67
I1
I31
I72
tp1028
I-100000
s(I28
I-14
I1
I16
I-4
tp1029
I0
s(I16
I56
I0
I7
I65
tp1030
I-100000
s(I61
I27
I0
I50
I33
tp1031
I0
s(I28
I-12
I1
I16
I0
tp1032
I0
s(I16
I58
I0
I7
I66
tp1033
I-100000
s(I73
I63
I1
I62
I73
tp1034
I-100000
s(I61
I19
I1
I50
I31
tp1035
I0
s(I73
I48
I1
I61
I58
tp1036
I0
s(I73
I47
I1
I61
I56
tp1037
I0
s(I95
I9
I0
I84
I-2
tp1038
I0
s(I16
I-14
I1
I7
I-10
tp1039
I-100000
s(I73
I-21
I1
I61
I-9
tp1040
I0
s(I16
I0
I0
I5
I7
tp1041
I0
s(I84
I32
I0
I73
I21
tp1042
I0
s(I16
I53
I0
I7
I43
tp1043
I-100000
s(I16
I43
I1
I7
I49
tp1044
I-100000
s(I39
I4
I1
I28
I16
tp1045
I0
s(I61
I40
I1
I50
I49
tp1046
I0
s(I39
I47
I1
I28
I57
tp1047
I0
s(I39
I50
I0
I28
I39
tp1048
I0
s(I50
I-25
I1
I39
I-16
tp1049
I0
s(I5
I9
I1
I129
I22
tp1050
I0
s(I61
I-25
I0
I50
I-36
tp1051
I0
s(I95
I36
I1
I84
I48
tp1052
I0
s(I84
I60
I0
I79
I74
tp1053
I-100000
s(I28
I8
I1
I16
I17
tp1054
I0
s(I39
I-9
I1
I28
I1
tp1055
I0
s(I28
I62
I0
I16
I51
tp1056
I0
s(I39
I7
I0
I28
I14
tp1057
I0
s(I28
I57
I1
I16
I69
tp1058
I0
s(I39
I-3
I1
I28
I9
tp1059
I0
s(I5
I19
I1
I-5
I25
tp1060
I-100000
s(I84
I18
I1
I73
I30
tp1061
I0
s(I95
I37
I1
I84
I46
tp1062
I0
s(I50
I13
I1
I39
I23
tp1063
I0
s(I73
I66
I1
I64
I72
tp1064
I-100000
s(I16
I12
I0
I5
I1
tp1065
I0
s(I39
I71
I0
I38
I73
tp1066
I-100000
s(I84
I36
I0
I73
I25
tp1067
I0
s(I39
I17
I1
I28
I27
tp1068
I0
s(I5
I11
I1
I129
I23
tp1069
I0
s(I5
I21
I0
I4
I26
tp1070
I-100000
s(I39
I23
I0
I28
I30
tp1071
I0
s(I50
I68
I0
I49
I72
tp1072
I-100000
s(I61
I66
I1
I53
I72
tp1073
I-100000
s(I73
I-42
I0
I65
I-49
tp1074
I-100000
s(I5
I9
I1
I129
I18
tp1075
I0
s(I16
I71
I1
I16
I73
tp1076
I-100000
s(I61
I24
I0
I50
I13
tp1077
I0
s(I16
I36
I1
I7
I41
tp1078
I-100000
s(I39
I36
I0
I28
I25
tp1079
I0
s(I50
I65
I0
I48
I72
tp1080
I-100000
s(I39
I57
I0
I28
I64
tp1081
I0
s(I61
I8
I1
I50
I17
tp1082
I0
s(I28
I47
I0
I16
I35
tp1083
I0
s(I28
I18
I0
I16
I25
tp1084
I0
s(I16
I69
I1
I10
I72
tp1085
I-100000
s(I39
I21
I0
I28
I10
tp1086
I0
s(I50
I-8
I1
I39
I1
tp1087
I0
s(I39
I45
I0
I28
I34
tp1088
I0
s(I50
I29
I1
I39
I41
tp1089
I0
s(I28
I-38
I1
I16
I-26
tp1090
I0
s(I28
I-20
I1
I16
I-11
tp1091
I0
s(I61
I34
I1
I50
I43
tp1092
I0
s(I61
I40
I0
I50
I29
tp1093
I0
s(I50
I49
I0
I39
I38
tp1094
I0
s(I39
I-47
I0
I37
I-49
tp1095
I-100000
s(I39
I22
I1
I28
I32
tp1096
I0
s(I50
I30
I1
I39
I40
tp1097
I0
s(I73
I64
I0
I70
I73
tp1098
I-100000
s(I73
I31
I1
I61
I41
tp1099
I0
s(I73
I61
I1
I61
I70
tp1100
I0
s(I50
I38
I1
I39
I48
tp1101
I0
s(I50
I59
I0
I46
I73
tp1102
I-100000
s(I16
I-38
I1
I7
I-30
tp1103
I-100000
s(I28
I67
I1
I20
I72
tp1104
I-100000
s(I73
I-14
I0
I61
I-25
tp1105
I0
s(I28
I46
I1
I16
I55
tp1106
I0
s(I28
I-15
I1
I16
I-3
tp1107
I0
s(I50
I19
I0
I39
I26
tp1108
I0
s(I39
I15
I0
I28
I3
tp1109
I0
s(I73
I71
I1
I72
I73
tp1110
I-100000
s(I28
I52
I1
I16
I64
tp1111
I0
s(I84
I46
I1
I73
I58
tp1112
I0
s(I39
I18
I0
I28
I6
tp1113
I0
s(I73
I33
I1
I61
I45
tp1114
I0
s(I39
I15
I1
I28
I24
tp1115
I0
s(I39
I-8
I1
I28
I4
tp1116
I0
s(I50
I37
I1
I39
I46
tp1117
I0
s(I129
I14
I0
I118
I3
tp1118
I0
s.