(dp0
(I4
I5
I0
I0
I1
tp1
I0
s(I19
I-13
I1
I15
I-11
tp2
I0
s(I27
I37
I0
I23
I46
tp3
I0
s(I23
I44
I0
I21
I48
tp4
I-100000
s(I64
I-12
I1
I60
I-10
tp5
I0
s(I12
I-13
I1
I8
I-11
tp6
I0
s(I15
I-6
I1
I12
I-5
tp7
I0
s(I57
I47
I0
I53
I45
tp8
I0
s(I27
I44
I0
I25
I48
tp9
I-100000
s(I57
I8
I0
I53
I17
tp10
I0
s(I23
I-31
I0
I19
I-35
tp11
I0
s(I12
I12
I0
I8
I9
tp12
I0
s(I12
I-1
I0
I8
I-5
tp13
I0
s(I23
I7
I0
I19
I3
tp14
I0
s(I15
I-33
I1
I12
I-32
tp15
I0
s(I64
I34
I0
I61
I41
tp16
I-100000
s(I38
I7
I0
I34
I4
tp17
I0
s(I4
I-2
I0
I0
I8
tp18
I0
s(I42
I16
I1
I38
I18
tp19
I0
s(I53
I43
I0
I53
I44
tp20
I-100000
s(I0
I6
I0
I64
I-22
tp21
I0
s(I4
I3
I0
I0
I12
tp22
I-100000
s(I42
I17
I1
I38
I19
tp23
I0
s(I49
I22
I1
I45
I24
tp24
I0
s(I4
I-3
I0
I0
I6
tp25
I0
s(I12
I-33
I0
I8
I-24
tp26
I0
s(I19
I18
I0
I15
I15
tp27
I0
s(I23
I44
I0
I19
I40
tp28
I0
s(I0
I2
I1
I64
I28
tp29
I0
s(I49
I1
I0
I45
I-3
tp30
I0
s(I12
I16
I0
I8
I12
tp31
I0
s(I45
I6
I0
I42
I3
tp32
I0
s(I45
I24
I0
I43
I28
tp33
I-100000
s(I19
I-29
I1
I15
I-28
tp34
I0
s(I57
I15
I0
I53
I13
tp35
I0
s(I45
I7
I0
I42
I3
tp36
I0
s(I53
I20
I1
I49
I22
tp37
I0
s(I23
I28
I0
I19
I24
tp38
I0
s(I34
I-14
I0
I30
I-17
tp39
I0
s(I30
I6
I0
I27
I2
tp40
I0
s(I30
I-21
I0
I27
I-25
tp41
I0
s(I0
I5
I1
I64
I-21
tp42
I0
s(I49
I27
I0
I45
I24
tp43
I0
s(I53
I14
I0
I49
I10
tp44
I0
s(I57
I24
I0
I53
I34
tp45
I0
s(I8
I-39
I1
I4
I-37
tp46
I0
s(I34
I25
I0
I30
I22
tp47
I0
s(I60
I18
I1
I57
I20
tp48
I0
s(I45
I-41
I1
I42
I-40
tp49
I0
s(I19
I-21
I0
I15
I-25
tp50
I0
s(I42
I26
I0
I38
I22
tp51
I0
s(I49
I44
I1
I45
I46
tp52
I0
s(I60
I-2
I0
I57
I-5
tp53
I100000
s(I12
I-32
I1
I8
I-30
tp54
I0
s(I12
I-5
I1
I8
I-3
tp55
I0
s(I15
I-14
I1
I12
I-13
tp56
I0
s(I27
I-4
I0
I23
I-8
tp57
I0
s(I4
I-6
I0
I3
I-5
tp58
I-100000
s(I34
I34
I0
I30
I30
tp59
I0
s(I53
I43
I0
I49
I41
tp60
I0
s(I23
I-24
I0
I19
I-15
tp61
I0
s(I42
I45
I0
I38
I41
tp62
I0
s(I12
I46
I0
I11
I48
tp63
I-100000
s(I60
I16
I0
I57
I25
tp64
I0
s(I53
I37
I0
I51
I40
tp65
I-100000
s(I27
I-12
I0
I26
I-13
tp66
I-100000
s(I12
I-11
I0
I8
I-13
tp67
I0
s(I49
I49
I0
I48
I52
tp68
I-100000
s(I38
I41
I0
I34
I38
tp69
I0
s(I27
I37
I0
I23
I35
tp70
I0
s(I57
I35
I0
I53
I45
tp71
I0
s(I8
I-13
I1
I4
I-12
tp72
I0
s(I45
I4
I0
I42
I0
tp73
I0
s(I4
I24
I1
I3
I24
tp74
I-100000
s(I23
I-25
I0
I19
I-28
tp75
I0
s(I42
I36
I1
I38
I38
tp76
I0
s(I53
I31
I1
I49
I33
tp77
I0
s(I53
I20
I0
I49
I29
tp78
I0
s(I38
I22
I0
I34
I18
tp79
I0
s(I42
I-3
I0
I38
I-6
tp80
I0
s(I64
I-20
I0
I60
I-24
tp81
I0
s(I49
I35
I1
I45
I37
tp82
I0
s(I0
I9
I0
I64
I25
tp83
I0
s(I53
I16
I0
I49
I12
tp84
I0
s(I19
I-32
I0
I19
I-33
tp85
I-100000
s(I0
I3
I1
I64
I25
tp86
I0
s(I34
I-19
I0
I32
I-21
tp87
I-100000
s(I12
I-14
I1
I8
I-12
tp88
I0
s(I19
I-36
I1
I19
I-37
tp89
I-100000
s(I64
I-11
I1
I60
I-10
tp90
I0
s(I53
I27
I1
I49
I29
tp91
I0
s(I57
I10
I0
I53
I19
tp92
I0
s(I49
I33
I1
I45
I36
tp93
I0
s(I0
I6
I0
I-3
I13
tp94
I-100000
s(I4
I-19
I1
I3
I-18
tp95
I-100000
s(I4
I13
I0
I0
I10
tp96
I0
s(I0
I7
I0
I64
I-27
tp97
I0
s(I64
I-6
I1
I60
I-4
tp98
I0
s(I19
I-5
I0
I15
I-9
tp99
I0
s(I27
I-13
I1
I23
I-11
tp100
I0
s(I34
I29
I0
I30
I38
tp101
I0
s(I60
I22
I1
I57
I23
tp102
I100000
s(I12
I-7
I1
I8
I-6
tp103
I0
s(I0
I4
I1
I64
I6
tp104
I0
s(I19
I0
I0
I15
I-3
tp105
I0
s(I60
I13
I1
I57
I14
tp106
I100000
s(I49
I30
I0
I45
I39
tp107
I0
s(I27
I24
I1
I23
I26
tp108
I0
s(I34
I4
I0
I30
I0
tp109
I0
s(I27
I-13
I1
I23
I-10
tp110
I0
s(I53
I11
I1
I49
I14
tp111
I0
s(I57
I21
I0
I54
I28
tp112
I-100000
s(I60
I-25
I1
I57
I-23
tp113
I0
s(I64
I27
I1
I60
I29
tp114
I0
s(I19
I-2
I0
I15
I-6
tp115
I0
s(I64
I13
I0
I61
I20
tp116
I-100000
s(I12
I-15
I1
I8
I-13
tp117
I0
s(I12
I26
I1
I8
I28
tp118
I0
s(I0
I4
I1
I64
I-6
tp119
I0
s(I38
I43
I0
I34
I52
tp120
I-100000
s(I19
I36
I0
I15
I32
tp121
I0
s(I27
I38
I1
I23
I40
tp122
I0
s(I0
I2
I1
I64
I32
tp123
I0
s(I0
I8
I0
I64
I6
tp124
I0
s(I8
I-10
I0
I4
I-13
tp125
I0
s(I23
I10
I0
I19
I7
tp126
I0
s(I30
I36
I1
I27
I38
tp127
I0
s(I8
I1
I0
I4
I-1
tp128
I0
s(I38
I44
I1
I34
I46
tp129
I0
s(I53
I23
I1
I49
I26
tp130
I0
s(I53
I-15
I0
I49
I-17
tp131
I0
s(I49
I36
I0
I45
I45
tp132
I0
s(I15
I4
I0
I12
I1
tp133
I0
s(I53
I-18
I0
I49
I-20
tp134
I0
s(I15
I1
I0
I12
I-2
tp135
I0
s(I60
I-14
I0
I57
I-17
tp136
I100000
s(I8
I-6
I0
I4
I-8
tp137
I0
s(I53
I1
I0
I49
I-1
tp138
I0
s(I45
I-1
I0
I42
I-5
tp139
I0
s(I0
I3
I1
I64
I-27
tp140
I0
s(I12
I-6
I1
I8
I-4
tp141
I0
s(I64
I44
I0
I62
I48
tp142
I-100000
s(I27
I-30
I0
I23
I-33
tp143
I0
s(I12
I-32
I0
I8
I-23
tp144
I0
s(I8
I-14
I1
I4
I-13
tp145
I0
s(I0
I8
I0
I64
I-15
tp146
I0
s(I4
I26
I0
I3
I28
tp147
I-100000
s(I60
I-4
I0
I57
I5
tp148
I0
s(I23
I42
I1
I19
I44
tp149
I0
s(I49
I33
I1
I45
I35
tp150
I0
s(I64
I-10
I0
I60
I-14
tp151
I0
s(I0
I0
I0
I64
I18
tp152
I0
s(I15
I-11
I1
I12
I-8
tp153
I0
s(I53
I4
I0
I49
I0
tp154
I0
s(I27
I-19
I0
I23
I-23
tp155
I0
s(I34
I27
I1
I30
I30
tp156
I0
s(I0
I2
I1
I64
I15
tp157
I0
s(I19
I-13
I0
I15
I-17
tp158
I0
s(I45
I27
I0
I45
I28
tp159
I-100000
s(I19
I-24
I1
I15
I-23
tp160
I0
s(I0
I2
I1
I64
I-1
tp161
I0
s(I8
I-1
I0
I4
I-3
tp162
I0
s(I53
I35
I0
I49
I33
tp163
I0
s(I19
I-33
I0
I16
I-37
tp164
I-100000
s(I57
I4
I0
I53
I0
tp165
I0
s(I60
I10
I1
I57
I12
tp166
I0
s(I64
I-18
I1
I60
I-16
tp167
I0
s(I12
I-41
I1
I8
I-40
tp168
I0
s(I4
I4
I0
I0
I2
tp169
I0
s(I60
I-15
I1
I57
I-13
tp170
I0
s(I0
I6
I1
I64
I24
tp171
I0
s(I27
I-4
I0
I23
I6
tp172
I0
s(I57
I-24
I0
I53
I-15
tp173
I0
s(I57
I-30
I0
I53
I-33
tp174
I0
s(I49
I-7
I0
I45
I-11
tp175
I0
s(I42
I0
I0
I38
I-3
tp176
I0
s(I60
I9
I1
I57
I11
tp177
I100000
s(I60
I21
I0
I57
I29
tp178
I100000
s(I4
I-3
I0
I3
I-3
tp179
I-100000
s(I60
I5
I0
I59
I8
tp180
I-100000
s(I57
I-8
I0
I53
I2
tp181
I0
s(I42
I6
I0
I38
I3
tp182
I0
s(I49
I5
I0
I45
I2
tp183
I0
s(I60
I-22
I0
I57
I-15
tp184
I-100000
s(I60
I31
I1
I57
I33
tp185
I100000
s(I53
I25
I0
I49
I21
tp186
I0
s(I8
I7
I0
I4
I5
tp187
I0
s(I64
I-6
I0
I60
I-10
tp188
I0
s(I30
I8
I0
I27
I5
tp189
I0
s(I8
I-17
I0
I4
I-21
tp190
I0
s(I49
I29
I0
I45
I38
tp191
I0
s(I34
I10
I0
I30
I6
tp192
I0
s(I60
I4
I0
I58
I9
tp193
I-100000
s(I0
I9
I0
I64
I13
tp194
I0
s(I12
I-25
I0
I8
I-16
tp195
I0
s(I42
I-24
I0
I38
I-15
tp196
I0
s(I30
I-7
I0
I27
I-10
tp197
I0
s(I64
I31
I0
I62
I36
tp198
I-100000
s(I0
I6
I1
I64
I0
tp199
I0
s(I8
I-10
I0
I4
I-14
tp200
I0
s(I45
I-15
I0
I42
I-18
tp201
I0
s(I12
I-36
I1
I8
I-35
tp202
I0
s(I60
I34
I0
I57
I42
tp203
I100000
s(I57
I20
I0
I53
I18
tp204
I0
s(I45
I36
I1
I42
I38
tp205
I0
s(I38
I29
I0
I34
I26
tp206
I0
s(I60
I38
I0
I57
I46
tp207
I100000
s(I4
I-21
I0
I3
I-22
tp208
I-100000
s(I23
I24
I0
I19
I20
tp209
I0
s(I27
I32
I0
I23
I42
tp210
I0
s(I49
I22
I0
I45
I31
tp211
I0
s(I38
I24
I0
I34
I20
tp212
I0
s(I8
I25
I1
I4
I26
tp213
I0
s(I53
I16
I0
I49
I14
tp214
I0
s(I45
I19
I1
I42
I21
tp215
I0
s(I0
I7
I0
I64
I20
tp216
I0
s(I60
I23
I0
I58
I29
tp217
I-100000
s(I19
I-34
I0
I15
I-38
tp218
I0
s(I64
I18
I0
I61
I25
tp219
I-100000
s(I15
I-13
I1
I12
I-10
tp220
I0
s(I53
I16
I1
I49
I18
tp221
I0
s(I4
I-15
I1
I3
I-14
tp222
I-100000
s(I49
I12
I0
I45
I9
tp223
I0
s(I27
I-14
I1
I23
I-13
tp224
I0
s(I49
I50
I0
I49
I52
tp225
I-100000
s(I12
I39
I1
I9
I40
tp226
I-100000
s(I60
I10
I0
I57
I6
tp227
I0
s(I34
I-11
I1
I30
I-10
tp228
I0
s(I30
I9
I0
I27
I5
tp229
I0
s(I49
I23
I0
I49
I24
tp230
I-100000
s(I57
I40
I0
I53
I49
tp231
I0
s(I45
I40
I1
I42
I42
tp232
I0
s(I49
I25
I0
I45
I21
tp233
I0
s(I15
I-4
I0
I12
I-6
tp234
I0
s(I60
I16
I1
I57
I17
tp235
I100000
s(I42
I25
I0
I39
I32
tp236
I-100000
s(I60
I14
I1
I57
I15
tp237
I100000
s(I12
I1
I0
I8
I-3
tp238
I0
s(I8
I-19
I1
I4
I-16
tp239
I0
s(I57
I-28
I0
I53
I-31
tp240
I0
s(I12
I-8
I1
I8
I-7
tp241
I0
s(I19
I9
I0
I15
I6
tp242
I0
s(I12
I-6
I0
I8
I-10
tp243
I0
s(I57
I-10
I0
I53
I-1
tp244
I0
s(I12
I-2
I0
I8
I7
tp245
I0
s(I15
I-21
I1
I12
I-19
tp246
I0
s(I34
I20
I0
I30
I29
tp247
I0
s(I53
I35
I1
I49
I38
tp248
I0
s(I60
I32
I0
I58
I36
tp249
I-100000
s(I0
I2
I1
I64
I20
tp250
I0
s(I64
I37
I0
I61
I44
tp251
I-100000
s(I38
I11
I0
I34
I8
tp252
I0
s(I53
I12
I0
I49
I10
tp253
I0
s(I19
I-26
I1
I15
I-25
tp254
I0
s(I45
I-8
I0
I42
I-11
tp255
I0
s(I64
I2
I0
I60
I-2
tp256
I0
s(I12
I-10
I0
I8
I-1
tp257
I0
s(I23
I-15
I0
I19
I-19
tp258
I0
s(I53
I18
I0
I49
I14
tp259
I0
s(I38
I-18
I0
I34
I-21
tp260
I0
s(I34
I28
I1
I30
I30
tp261
I0
s(I8
I-16
I1
I4
I-13
tp262
I0
s(I0
I6
I0
I64
I14
tp263
I0
s(I38
I38
I1
I34
I40
tp264
I0
s(I4
I21
I1
I3
I21
tp265
I-100000
s(I4
I-4
I1
I3
I-3
tp266
I-100000
s(I38
I25
I0
I34
I34
tp267
I0
s(I23
I-27
I1
I19
I-26
tp268
I0
s(I42
I42
I1
I38
I44
tp269
I0
s(I38
I15
I0
I34
I12
tp270
I0
s(I38
I31
I1
I34
I32
tp271
I0
s(I57
I6
I0
I53
I3
tp272
I0
s(I64
I5
I0
I61
I13
tp273
I-100000
s(I15
I-27
I0
I13
I-29
tp274
I-100000
s(I4
I8
I0
I0
I6
tp275
I0
s(I64
I16
I1
I60
I17
tp276
I0
s(I4
I-2
I0
I3
I-2
tp277
I-100000
s(I23
I-28
I0
I19
I-19
tp278
I0
s(I53
I12
I0
I49
I8
tp279
I0
s(I27
I46
I0
I23
I44
tp280
I0
s(I60
I-22
I0
I57
I-26
tp281
I0
s(I57
I-8
I0
I53
I-12
tp282
I0
s(I45
I5
I0
I42
I1
tp283
I0
s(I27
I-25
I1
I23
I-22
tp284
I0
s(I34
I14
I0
I30
I11
tp285
I0
s(I60
I43
I1
I57
I45
tp286
I100000
s(I42
I29
I0
I38
I27
tp287
I0
s(I4
I12
I0
I0
I9
tp288
I0
s(I23
I-22
I0
I19
I-13
tp289
I0
s(I4
I-26
I1
I3
I-26
tp290
I-100000
s(I45
I32
I0
I42
I41
tp291
I0
s(I60
I-6
I0
I57
I-10
tp292
I0
s(I49
I-6
I0
I45
I-10
tp293
I0
s(I60
I-14
I1
I57
I-12
tp294
I100000
s(I42
I9
I0
I38
I5
tp295
I0
s(I8
I-35
I0
I4
I-26
tp296
I0
s(I57
I20
I0
I53
I29
tp297
I0
s(I60
I27
I1
I57
I29
tp298
I100000
s(I64
I-3
I1
I60
I-2
tp299
I0
s(I30
I45
I1
I27
I47
tp300
I0
s(I27
I-21
I0
I23
I-24
tp301
I0
s(I60
I6
I0
I57
I3
tp302
I100000
s(I64
I-2
I0
I60
I-5
tp303
I0
s(I27
I-17
I1
I23
I-16
tp304
I0
s(I45
I-6
I0
I42
I-10
tp305
I0
s(I60
I7
I1
I57
I9
tp306
I0
s(I0
I7
I0
I64
I1
tp307
I0
s(I60
I11
I1
I57
I13
tp308
I0
s(I8
I-21
I0
I4
I-24
tp309
I0
s(I4
I-38
I1
I3
I-37
tp310
I-100000
s(I38
I-10
I0
I34
I-12
tp311
I0
s(I38
I-24
I0
I34
I-27
tp312
I0
s(I19
I-14
I1
I15
I-13
tp313
I0
s(I60
I3
I0
I58
I9
tp314
I-100000
s(I19
I-20
I0
I15
I-11
tp315
I0
s(I60
I15
I0
I57
I23
tp316
I100000
s(I0
I3
I0
I64
I-24
tp317
I-100000
s(I4
I-14
I1
I3
I-13
tp318
I-100000
s(I53
I19
I1
I49
I22
tp319
I0
s(I0
I3
I1
I64
I17
tp320
I0
s(I0
I2
I1
I64
I19
tp321
I0
s(I45
I-16
I0
I42
I-19
tp322
I0
s(I38
I43
I0
I38
I44
tp323
I-100000
s(I15
I5
I0
I12
I2
tp324
I0
s(I27
I32
I1
I23
I33
tp325
I0
s(I12
I-31
I0
I8
I-21
tp326
I0
s(I64
I-12
I0
I61
I-4
tp327
I-100000
s(I34
I-43
I1
I30
I-42
tp328
I0
s(I19
I38
I1
I15
I40
tp329
I0
s(I30
I36
I0
I27
I44
tp330
I-100000
s(I57
I34
I0
I53
I43
tp331
I0
s(I49
I33
I0
I45
I29
tp332
I0
s(I45
I3
I0
I42
I0
tp333
I0
s(I27
I30
I0
I23
I39
tp334
I0
s(I42
I31
I0
I38
I29
tp335
I0
s(I8
I11
I0
I4
I8
tp336
I0
s(I45
I18
I0
I42
I28
tp337
I0
s(I19
I-9
I0
I15
I-11
tp338
I0
s(I49
I13
I0
I48
I16
tp339
I-100000
s(I23
I22
I0
I19
I18
tp340
I0
s(I0
I4
I1
I64
I30
tp341
I0
s(I45
I27
I0
I43
I32
tp342
I-100000
s(I57
I18
I0
I53
I27
tp343
I0
s(I42
I35
I0
I38
I31
tp344
I0
s(I4
I-4
I0
I3
I-2
tp345
I-100000
s(I23
I-6
I0
I19
I3
tp346
I0
s(I53
I8
I0
I49
I6
tp347
I0
s(I53
I43
I1
I49
I45
tp348
I0
s(I19
I-23
I0
I15
I-27
tp349
I0
s(I38
I25
I0
I34
I23
tp350
I0
s(I53
I32
I0
I49
I41
tp351
I0
s(I64
I2
I1
I60
I4
tp352
I0
s(I34
I22
I0
I30
I18
tp353
I0
s(I8
I-21
I0
I4
I-25
tp354
I0
s(I19
I48
I0
I17
I52
tp355
I-100000
s(I57
I2
I0
I53
I11
tp356
I0
s(I12
I46
I1
I8
I48
tp357
I-100000
s(I30
I46
I0
I27
I43
tp358
I0
s(I45
I25
I0
I42
I21
tp359
I0
s(I23
I8
I0
I19
I5
tp360
I0
s(I30
I31
I0
I27
I27
tp361
I0
s(I12
I0
I1
I8
I1
tp362
I0
s(I19
I-28
I0
I19
I-29
tp363
I-100000
s(I19
I-24
I0
I15
I-15
tp364
I0
s(I60
I27
I0
I58
I33
tp365
I-100000
s(I27
I40
I1
I23
I42
tp366
I0
s(I34
I13
I0
I30
I9
tp367
I0
s(I4
I-8
I1
I3
I-9
tp368
I-100000
s(I12
I-8
I0
I8
I1
tp369
I0
s(I45
I-13
I0
I42
I-17
tp370
I0
s(I53
I-31
I0
I49
I-35
tp371
I0
s(I60
I4
I0
I57
I13
tp372
I0
s(I53
I-21
I0
I49
I-25
tp373
I0
s(I23
I25
I0
I19
I21
tp374
I0
s(I0
I9
I0
I64
I39
tp375
I0
s(I64
I-23
I1
I60
I-22
tp376
I0
s(I64
I32
I1
I60
I34
tp377
I0
s(I49
I-1
I0
I45
I-5
tp378
I0
s(I53
I8
I0
I49
I4
tp379
I0
s(I8
I41
I0
I5
I49
tp380
I-100000
s(I8
I-12
I0
I4
I-3
tp381
I0
s(I57
I41
I0
I54
I48
tp382
I-100000
s(I64
I10
I0
I60
I6
tp383
I0
s(I57
I9
I1
I53
I11
tp384
I0
s(I30
I-25
I0
I27
I-29
tp385
I0
s(I0
I2
I0
I64
I24
tp386
I0
s(I4
I19
I1
I3
I19
tp387
I-100000
s(I38
I27
I0
I34
I36
tp388
I0
s(I0
I2
I1
I64
I7
tp389
I0
s(I53
I13
I0
I49
I10
tp390
I0
s(I49
I38
I1
I45
I40
tp391
I0
s(I60
I-1
I1
I57
I0
tp392
I0
s(I57
I-26
I0
I53
I-29
tp393
I0
s(I64
I32
I1
I60
I33
tp394
I0
s(I15
I-7
I0
I12
I-11
tp395
I0
s(I42
I-23
I0
I38
I-27
tp396
I0
s(I27
I-18
I0
I23
I-22
tp397
I0
s(I42
I-19
I0
I38
I-22
tp398
I0
s(I15
I15
I0
I12
I11
tp399
I0
s(I60
I-19
I0
I59
I-16
tp400
I-100000
s(I0
I5
I1
I64
I34
tp401
I0
s(I30
I-23
I0
I27
I-27
tp402
I0
s(I38
I31
I1
I34
I34
tp403
I0
s(I38
I23
I0
I34
I32
tp404
I0
s(I0
I6
I1
I64
I32
tp405
I0
s(I57
I-12
I0
I53
I-3
tp406
I0
s(I23
I-3
I0
I19
I-6
tp407
I0
s(I49
I21
I0
I48
I24
tp408
I-100000
s(I49
I31
I1
I49
I32
tp409
I-100000
s(I8
I-8
I0
I4
I-10
tp410
I0
s(I64
I-22
I0
I61
I-25
tp411
I-100000
s(I53
I-1
I0
I49
I-3
tp412
I0
s(I60
I-18
I1
I57
I-16
tp413
I100000
s(I4
I-16
I0
I3
I-18
tp414
I-100000
s(I64
I-9
I0
I62
I-4
tp415
I-100000
s(I34
I24
I0
I30
I21
tp416
I0
s(I19
I-21
I1
I15
I-20
tp417
I0
s(I53
I24
I0
I49
I22
tp418
I0
s(I45
I19
I1
I44
I20
tp419
I-100000
s(I53
I2
I0
I49
I0
tp420
I0
s(I19
I-19
I1
I15
I-17
tp421
I0
s(I38
I-17
I0
I34
I-21
tp422
I0
s(I8
I-5
I1
I4
I-3
tp423
I0
s(I42
I25
I1
I38
I28
tp424
I-100000
s(I8
I-26
I0
I4
I-17
tp425
I0
s(I0
I9
I0
I64
I5
tp426
I0
s(I45
I15
I0
I42
I11
tp427
I0
s(I34
I39
I0
I32
I44
tp428
I-100000
s(I0
I5
I1
I64
I31
tp429
I0
s(I64
I-22
I0
I60
I-26
tp430
I0
s(I34
I44
I0
I32
I48
tp431
I-100000
s(I57
I-11
I0
I53
I-2
tp432
I0
s(I34
I-26
I0
I30
I-30
tp433
I0
s(I19
I-36
I0
I19
I-37
tp434
I-100000
s(I0
I9
I0
I64
I-27
tp435
I0
s(I19
I0
I0
I15
I-4
tp436
I0
s(I53
I41
I0
I49
I37
tp437
I0
s(I64
I6
I0
I61
I3
tp438
I-100000
s(I12
I-4
I1
I8
I-2
tp439
I0
s(I0
I7
I0
I64
I28
tp440
I0
s(I15
I30
I0
I12
I26
tp441
I0
s(I38
I12
I0
I34
I8
tp442
I0
s(I19
I-15
I1
I15
I-12
tp443
I0
s(I30
I-2
I0
I27
I-6
tp444
I0
s(I45
I43
I1
I45
I44
tp445
I-100000
s(I12
I-26
I1
I8
I-24
tp446
I0
s(I30
I41
I1
I27
I44
tp447
I-100000
s(I30
I14
I0
I27
I11
tp448
I0
s(I15
I-43
I1
I12
I-42
tp449
I0
s(I4
I-12
I1
I3
I-13
tp450
I-100000
s(I23
I-36
I0
I19
I-27
tp451
I0
s(I45
I1
I0
I42
I-2
tp452
I0
s(I12
I-23
I0
I8
I-26
tp453
I0
s(I30
I22
I0
I27
I31
tp454
I0
s(I64
I-21
I0
I62
I-16
tp455
I-100000
s(I60
I-17
I0
I58
I-11
tp456
I-100000
s(I27
I-33
I0
I23
I-35
tp457
I0
s(I19
I11
I0
I15
I7
tp458
I0
s(I38
I-12
I0
I34
I-16
tp459
I0
s(I64
I6
I0
I60
I3
tp460
I0
s(I64
I21
I1
I60
I22
tp461
I0
s(I30
I-28
I0
I27
I-32
tp462
I0
s(I12
I-30
I1
I8
I-27
tp463
I0
s(I49
I6
I0
I45
I2
tp464
I0
s(I57
I1
I0
I53
I11
tp465
I0
s(I8
I-28
I0
I4
I-30
tp466
I0
s(I42
I-4
I0
I38
I-7
tp467
I0
s(I0
I2
I1
I64
I12
tp468
I0
s(I45
I-21
I1
I42
I-19
tp469
I0
s(I27
I42
I0
I24
I48
tp470
I-100000
s(I30
I38
I0
I27
I47
tp471
I0
s(I23
I-4
I0
I19
I-7
tp472
I0
s(I4
I-37
I0
I3
I-38
tp473
I-100000
s(I60
I32
I1
I57
I34
tp474
I100000
s(I42
I-5
I0
I38
I-9
tp475
I0
s(I64
I-11
I0
I61
I-3
tp476
I-100000
s(I49
I29
I1
I45
I32
tp477
I0
s(I64
I5
I1
I60
I6
tp478
I0
s(I42
I37
I0
I38
I33
tp479
I0
s(I23
I6
I0
I19
I3
tp480
I0
s(I30
I34
I0
I27
I43
tp481
I0
s(I42
I-8
I0
I38
I2
tp482
I0
s(I57
I5
I0
I53
I3
tp483
I0
s(I49
I18
I1
I45
I20
tp484
I0
s(I8
I-14
I1
I4
I-12
tp485
I0
s(I38
I6
I0
I34
I3
tp486
I0
s(I0
I6
I0
I64
I6
tp487
I0
s(I8
I24
I0
I4
I21
tp488
I0
s(I64
I-18
I0
I61
I-21
tp489
I-100000
s(I19
I-35
I0
I15
I-38
tp490
I0
s(I27
I-37
I1
I23
I-36
tp491
I0
s(I53
I16
I0
I49
I25
tp492
I0
s(I57
I28
I0
I53
I37
tp493
I0
s(I60
I-16
I0
I57
I-19
tp494
I100000
s(I19
I34
I0
I15
I30
tp495
I0
s(I19
I3
I0
I15
I0
tp496
I0
s(I34
I-6
I0
I30
I-10
tp497
I0
s(I42
I22
I1
I38
I24
tp498
I0
s(I8
I-32
I0
I4
I-34
tp499
I0
s(I15
I-3
I1
I12
I-2
tp500
I0
s(I4
I-38
I0
I3
I-36
tp501
I-100000
s(I27
I2
I0
I23
I-1
tp502
I0
s(I45
I26
I0
I42
I22
tp503
I0
s(I60
I0
I1
I57
I2
tp504
I0
s(I42
I36
I0
I38
I44
tp505
I-100000
s(I8
I-20
I0
I4
I-24
tp506
I0
s(I30
I32
I0
I28
I36
tp507
I-100000
s(I23
I-35
I0
I19
I-38
tp508
I0
s(I30
I42
I0
I28
I48
tp509
I-100000
s(I53
I3
I0
I49
I0
tp510
I0
s(I8
I-22
I0
I4
I-25
tp511
I0
s(I8
I-26
I0
I4
I-30
tp512
I0
s(I12
I-18
I1
I8
I-16
tp513
I0
s(I60
I12
I1
I57
I14
tp514
I0
s(I0
I9
I0
I64
I10
tp515
I0
s(I4
I-18
I1
I3
I-18
tp516
I-100000
s(I60
I38
I0
I59
I40
tp517
I-100000
s(I0
I3
I1
I64
I32
tp518
I0
s(I30
I-7
I0
I27
I-11
tp519
I0
s(I64
I3
I1
I60
I5
tp520
I0
s(I8
I-23
I0
I4
I-26
tp521
I0
s(I0
I5
I1
I64
I18
tp522
I0
s(I60
I12
I0
I58
I17
tp523
I-100000
s(I38
I10
I0
I34
I7
tp524
I0
s(I42
I-9
I0
I38
I-13
tp525
I0
s(I64
I-5
I1
I60
I-3
tp526
I0
s(I57
I-16
I0
I53
I-20
tp527
I0
s(I45
I7
I0
I42
I4
tp528
I0
s(I64
I17
I1
I60
I18
tp529
I0
s(I53
I7
I0
I49
I5
tp530
I0
s(I38
I19
I0
I34
I16
tp531
I0
s(I0
I5
I1
I64
I-26
tp532
I0
s(I4
I-1
I0
I0
I8
tp533
I0
s(I30
I12
I0
I27
I8
tp534
I0
s(I60
I39
I1
I57
I41
tp535
I100000
s(I8
I-30
I1
I4
I-28
tp536
I0
s(I23
I35
I0
I23
I36
tp537
I-100000
s(I0
I7
I0
I64
I9
tp538
I0
s(I38
I26
I0
I35
I32
tp539
I-100000
s(I15
I-32
I0
I12
I-23
tp540
I0
s(I15
I-22
I1
I12
I-20
tp541
I0
s(I0
I-1
I1
I0
I-1
tp542
I-100000
s(I30
I-16
I0
I27
I-19
tp543
I0
s(I42
I26
I1
I38
I28
tp544
I0
s(I60
I35
I0
I58
I41
tp545
I-100000
s(I23
I0
I0
I19
I-3
tp546
I0
s(I60
I23
I1
I57
I25
tp547
I100000
s(I64
I39
I0
I62
I45
tp548
I-100000
s(I49
I51
I0
I49
I52
tp549
I-100000
s(I0
I7
I0
I64
I-11
tp550
I0
s(I30
I22
I1
I27
I24
tp551
I0
s(I42
I46
I0
I41
I48
tp552
I-100000
s(I30
I-6
I0
I27
I3
tp553
I0
s(I38
I32
I1
I34
I34
tp554
I0
s(I27
I48
I0
I23
I46
tp555
I0
s(I0
I3
I1
I64
I9
tp556
I0
s(I45
I27
I0
I42
I25
tp557
I0
s(I15
I-1
I1
I12
I0
tp558
I0
s(I38
I28
I1
I34
I30
tp559
I0
s(I57
I-1
I0
I53
I8
tp560
I0
s(I12
I-8
I1
I8
I-6
tp561
I0
s(I42
I15
I0
I38
I11
tp562
I0
s(I19
I-27
I0
I15
I-18
tp563
I0
s(I64
I28
I1
I60
I29
tp564
I0
s(I12
I-17
I0
I8
I-8
tp565
I0
s(I27
I-17
I0
I23
I-19
tp566
I0
s(I19
I-25
I0
I15
I-29
tp567
I0
s(I27
I-16
I0
I23
I-20
tp568
I0
s(I15
I-11
I1
I12
I-10
tp569
I0
s(I15
I43
I0
I12
I40
tp570
I0
s(I12
I2
I0
I8
I-2
tp571
I0
s(I49
I25
I0
I48
I28
tp572
I-100000
s(I0
I3
I1
I64
I33
tp573
I0
s(I34
I2
I0
I30
I-2
tp574
I0
s(I15
I-17
I0
I12
I-7
tp575
I0
s(I49
I45
I0
I48
I48
tp576
I-100000
s(I8
I-11
I0
I4
I-2
tp577
I0
s(I8
I-17
I1
I4
I-16
tp578
I0
s(I30
I38
I0
I27
I36
tp579
I0
s(I57
I7
I0
I53
I17
tp580
I0
s(I64
I7
I0
I62
I12
tp581
I-100000
s(I8
I-1
I1
I4
I1
tp582
I0
s(I45
I-25
I0
I42
I-29
tp583
I-100000
s(I53
I24
I1
I49
I25
tp584
I0
s(I0
I4
I1
I64
I22
tp585
I0
s(I57
I4
I0
I53
I14
tp586
I0
s(I53
I10
I0
I49
I20
tp587
I0
s(I23
I32
I0
I19
I28
tp588
I0
s(I45
I37
I0
I42
I35
tp589
I0
s(I38
I43
I1
I38
I44
tp590
I-100000
s(I30
I-18
I0
I27
I-9
tp591
I0
s(I15
I-8
I0
I12
I-10
tp592
I0
s(I49
I-20
I0
I45
I-24
tp593
I0
s(I38
I-15
I0
I34
I-18
tp594
I0
s(I45
I43
I0
I42
I52
tp595
I-100000
s(I49
I31
I0
I45
I27
tp596
I0
s(I60
I18
I1
I57
I19
tp597
I100000
s(I42
I-12
I0
I38
I-16
tp598
I0
s(I57
I10
I0
I53
I8
tp599
I0
s(I64
I16
I1
I60
I18
tp600
I0
s(I8
I-7
I0
I4
I2
tp601
I0
s(I60
I30
I0
I57
I37
tp602
I-100000
s(I30
I-34
I0
I27
I-25
tp603
I0
s(I23
I-20
I0
I19
I-23
tp604
I0
s(I38
I40
I0
I34
I36
tp605
I0
s(I27
I30
I1
I23
I32
tp606
I-100000
s(I8
I29
I0
I4
I25
tp607
I0
s(I34
I50
I0
I33
I52
tp608
I-100000
s(I49
I7
I0
I45
I3
tp609
I0
s(I34
I-13
I0
I30
I-17
tp610
I0
s(I19
I14
I0
I15
I11
tp611
I0
s(I38
I-10
I0
I34
I-13
tp612
I0
s(I38
I-6
I0
I34
I-9
tp613
I0
s(I4
I-18
I0
I3
I-19
tp614
I-100000
s(I4
I-17
I0
I3
I-15
tp615
I-100000
s(I53
I-24
I0
I49
I-27
tp616
I0
s(I45
I35
I1
I42
I38
tp617
I0
s(I19
I43
I1
I15
I46
tp618
I0
s(I64
I0
I1
I60
I2
tp619
I0
s(I45
I30
I1
I42
I32
tp620
I0
s(I60
I40
I0
I58
I44
tp621
I-100000
s(I30
I30
I0
I27
I26
tp622
I0
s(I49
I28
I0
I45
I24
tp623
I0
s(I4
I-35
I0
I3
I-33
tp624
I-100000
s(I15
I-8
I0
I12
I1
tp625
I0
s(I42
I48
I0
I39
I52
tp626
I-100000
s(I49
I41
I0
I45
I37
tp627
I0
s(I38
I24
I0
I35
I32
tp628
I-100000
s(I0
I6
I0
I64
I-6
tp629
I0
s(I60
I-5
I0
I57
I-8
tp630
I0
s(I34
I32
I1
I30
I35
tp631
I0
s(I42
I33
I0
I38
I30
tp632
I0
s(I4
I-11
I0
I3
I-9
tp633
I-100000
s(I12
I39
I0
I8
I48
tp634
I-100000
s(I38
I-2
I0
I34
I-6
tp635
I0
s(I30
I10
I0
I27
I6
tp636
I0
s(I60
I25
I0
I59
I28
tp637
I-100000
s(I8
I9
I0
I4
I5
tp638
I0
s(I0
I6
I1
I64
I-8
tp639
I0
s(I57
I-18
I0
I53
I-8
tp640
I0
s(I49
I13
I1
I45
I15
tp641
I0
s(I53
I-17
I0
I49
I-21
tp642
I0
s(I19
I-11
I0
I15
I-14
tp643
I0
s(I53
I-8
I0
I49
I-10
tp644
I0
s(I8
I-30
I0
I4
I-34
tp645
I0
s(I34
I8
I0
I30
I4
tp646
I0
s(I23
I41
I0
I20
I49
tp647
I-100000
s(I0
I10
I0
I64
I-16
tp648
I0
s(I30
I26
I0
I27
I22
tp649
I0
s(I45
I13
I0
I42
I9
tp650
I0
s(I12
I-19
I1
I8
I-17
tp651
I0
s(I60
I35
I1
I57
I37
tp652
I100000
s(I23
I3
I0
I19
I-1
tp653
I0
s(I53
I33
I0
I51
I36
tp654
I-100000
s(I49
I26
I0
I45
I35
tp655
I0
s(I42
I40
I0
I38
I48
tp656
I-100000
s(I45
I22
I0
I42
I32
tp657
I0
s(I42
I-17
I0
I38
I-21
tp658
I0
s(I19
I-10
I0
I15
I-14
tp659
I0
s(I0
I6
I1
I64
I40
tp660
I0
s(I30
I16
I0
I27
I12
tp661
I0
s(I45
I46
I0
I42
I52
tp662
I-100000
s(I45
I15
I1
I45
I16
tp663
I-100000
s(I4
I-20
I1
I3
I-20
tp664
I-100000
s(I23
I-12
I1
I19
I-10
tp665
I0
s(I12
I28
I0
I8
I25
tp666
I0
s(I30
I39
I0
I27
I36
tp667
I0
s(I12
I-1
I0
I8
I9
tp668
I0
s(I64
I-7
I1
I60
I-5
tp669
I0
s(I19
I45
I0
I15
I43
tp670
I0
s(I38
I48
I0
I36
I52
tp671
I-100000
s(I45
I31
I0
I42
I28
tp672
I0
s(I64
I12
I0
I60
I21
tp673
I-100000
s(I0
I1
I1
I64
I-2
tp674
I0
s(I38
I-31
I0
I34
I-35
tp675
I0
s(I4
I-22
I1
I3
I-22
tp676
I-100000
s(I30
I20
I0
I27
I16
tp677
I0
s(I64
I-18
I1
I60
I-17
tp678
I0
s(I42
I27
I0
I38
I23
tp679
I0
s(I12
I32
I0
I8
I29
tp680
I0
s(I57
I17
I0
I53
I15
tp681
I0
s(I0
I5
I1
I64
I7
tp682
I0
s(I60
I5
I1
I57
I7
tp683
I0
s(I57
I14
I1
I53
I16
tp684
I0
s(I19
I42
I0
I15
I40
tp685
I0
s(I27
I39
I1
I26
I40
tp686
I-100000
s(I19
I21
I0
I15
I17
tp687
I0
s(I60
I19
I0
I57
I16
tp688
I0
s(I34
I50
I1
I30
I52
tp689
I-100000
s(I49
I18
I0
I46
I24
tp690
I-100000
s(I38
I-8
I0
I34
I-12
tp691
I0
s(I53
I14
I0
I49
I12
tp692
I0
s(I0
I9
I0
I64
I-3
tp693
I0
s(I57
I0
I0
I53
I-4
tp694
I0
s(I4
I-1
I1
I3
I-1
tp695
I-100000
s(I64
I38
I0
I61
I44
tp696
I-100000
s(I4
I-8
I0
I3
I-8
tp697
I-100000
s(I0
I8
I0
I64
I1
tp698
I0
s(I19
I-22
I0
I15
I-13
tp699
I0
s(I23
I5
I0
I19
I2
tp700
I0
s(I12
I0
I1
I8
I2
tp701
I0
s(I12
I-19
I0
I8
I-10
tp702
I0
s(I34
I-13
I0
I30
I-16
tp703
I0
s(I27
I39
I0
I26
I40
tp704
I-100000
s(I42
I1
I0
I38
I-2
tp705
I0
s(I49
I-10
I0
I45
I-14
tp706
I0
s(I4
I-33
I1
I3
I-32
tp707
I-100000
s(I64
I-19
I1
I60
I-17
tp708
I0
s(I64
I6
I1
I60
I8
tp709
I0
s(I27
I19
I0
I23
I15
tp710
I0
s(I4
I-24
I1
I3
I-24
tp711
I-100000
s(I23
I33
I1
I19
I35
tp712
I0
s(I30
I30
I0
I27
I39
tp713
I0
s(I4
I-5
I0
I3
I-3
tp714
I-100000
s(I45
I30
I0
I42
I28
tp715
I0
s(I12
I-21
I1
I8
I-19
tp716
I0
s(I60
I1
I0
I59
I4
tp717
I-100000
s(I30
I34
I0
I27
I32
tp718
I0
s(I57
I-5
I0
I53
I4
tp719
I0
s(I4
I-30
I1
I3
I-30
tp720
I-100000
s(I42
I-8
I0
I38
I-11
tp721
I0
s(I27
I36
I0
I23
I32
tp722
I0
s(I23
I1
I0
I19
I-2
tp723
I0
s(I15
I-43
I0
I13
I-45
tp724
I-100000
s(I57
I-18
I0
I53
I-9
tp725
I0
s(I0
I2
I1
I64
I4
tp726
I0
s(I23
I-13
I1
I19
I-12
tp727
I0
s(I15
I-29
I0
I12
I-20
tp728
I0
s(I27
I20
I0
I23
I17
tp729
I0
s(I8
I-4
I1
I4
I-3
tp730
I0
s(I8
I2
I0
I4
I12
tp731
I0
s(I34
I-10
I0
I30
I-13
tp732
I0
s(I42
I5
I0
I38
I1
tp733
I0
s(I60
I10
I1
I57
I11
tp734
I100000
s(I60
I-12
I0
I57
I-3
tp735
I0
s(I0
I5
I1
I64
I-25
tp736
I0
s(I30
I-10
I0
I27
I-1
tp737
I0
s(I15
I-18
I1
I12
I-16
tp738
I0
s(I64
I31
I1
I60
I33
tp739
I0
s(I49
I-35
I0
I48
I-37
tp740
I-100000
s(I53
I31
I0
I49
I29
tp741
I0
s(I23
I27
I0
I19
I24
tp742
I0
s(I53
I16
I0
I49
I13
tp743
I0
s(I34
I39
I1
I30
I40
tp744
I0
s(I12
I-26
I0
I8
I-28
tp745
I0
s(I45
I19
I0
I45
I20
tp746
I-100000
s(I8
I28
I0
I4
I24
tp747
I0
s(I64
I-27
I0
I61
I-19
tp748
I-100000
s(I45
I0
I0
I42
I-3
tp749
I0
s(I8
I-3
I1
I4
I-2
tp750
I0
s(I15
I-34
I0
I13
I-37
tp751
I-100000
s(I57
I39
I1
I53
I41
tp752
I0
s(I23
I-19
I1
I19
I-17
tp753
I0
s(I64
I39
I0
I62
I44
tp754
I-100000
s(I27
I-16
I0
I23
I-19
tp755
I0
s(I8
I-20
I0
I4
I-11
tp756
I0
s(I42
I33
I0
I38
I42
tp757
I0
s(I23
I41
I0
I19
I39
tp758
I0
s(I60
I1
I0
I57
I10
tp759
I0
s(I27
I-13
I0
I23
I-15
tp760
I0
s(I34
I36
I1
I30
I37
tp761
I0
s(I23
I-17
I0
I19
I-20
tp762
I0
s(I19
I-23
I1
I15
I-22
tp763
I0
s(I27
I6
I0
I23
I2
tp764
I0
s(I0
I8
I0
I64
I-2
tp765
I0
s(I38
I31
I0
I34
I28
tp766
I0
s(I19
I-20
I1
I15
I-19
tp767
I0
s(I49
I34
I1
I45
I36
tp768
I0
s(I15
I2
I0
I12
I0
tp769
I0
s(I64
I27
I0
I62
I32
tp770
I-100000
s(I23
I35
I1
I19
I36
tp771
I0
s(I0
I9
I0
I64
I2
tp772
I0
s(I64
I-2
I1
I60
I0
tp773
I0
s(I53
I-4
I0
I49
I-8
tp774
I0
s(I34
I-39
I0
I32
I-41
tp775
I-100000
s(I12
I-21
I0
I8
I-12
tp776
I0
s(I0
I5
I1
I64
I26
tp777
I0
s(I57
I16
I0
I53
I12
tp778
I0
s(I49
I41
I1
I45
I44
tp779
I0
s(I30
I0
I0
I27
I-4
tp780
I0
s(I64
I-10
I1
I60
I-8
tp781
I0
s(I64
I-26
I0
I62
I-20
tp782
I-100000
s(I60
I28
I1
I57
I30
tp783
I0
s(I38
I30
I0
I34
I26
tp784
I0
s(I30
I40
I0
I27
I48
tp785
I-100000
s(I30
I-4
I0
I27
I-7
tp786
I0
s(I64
I-23
I0
I61
I-15
tp787
I-100000
s(I27
I-7
I0
I23
I-11
tp788
I0
s(I27
I39
I1
I23
I41
tp789
I0
s(I0
I7
I0
I64
I17
tp790
I0
s(I15
I-10
I1
I12
I-8
tp791
I0
s(I53
I13
I0
I51
I16
tp792
I-100000
s(I4
I-12
I0
I3
I-12
tp793
I-100000
s(I23
I-36
I1
I19
I-34
tp794
I0
s(I0
I5
I1
I64
I-2
tp795
I0
s(I34
I37
I0
I30
I46
tp796
I0
s(I0
I9
I0
I64
I29
tp797
I0
s(I49
I41
I0
I48
I44
tp798
I-100000
s(I30
I31
I0
I27
I40
tp799
I0
s(I38
I26
I0
I34
I22
tp800
I0
s(I0
I3
I1
I64
I1
tp801
I0
s(I45
I-4
I0
I42
I-8
tp802
I0
s(I23
I-27
I0
I19
I-30
tp803
I0
s(I42
I44
I1
I38
I46
tp804
I0
s(I45
I31
I0
I42
I27
tp805
I0
s(I30
I-12
I0
I27
I-16
tp806
I0
s(I42
I-15
I0
I38
I-19
tp807
I0
s(I49
I43
I0
I49
I44
tp808
I-100000
s(I57
I41
I0
I53
I39
tp809
I0
s(I64
I-3
I0
I61
I5
tp810
I-100000
s(I27
I13
I0
I23
I9
tp811
I0
s(I23
I41
I1
I19
I43
tp812
I0
s(I30
I-14
I0
I27
I-5
tp813
I0
s(I4
I-9
I0
I3
I-7
tp814
I-100000
s(I12
I-22
I1
I8
I-20
tp815
I0
s(I45
I40
I0
I43
I44
tp816
I-100000
s(I8
I-5
I0
I4
I-7
tp817
I0
s(I23
I-11
I0
I19
I-14
tp818
I0
s(I0
I7
I0
I64
I-3
tp819
I0
s(I34
I-16
I0
I30
I-19
tp820
I0
s(I30
I-22
I0
I27
I-25
tp821
I0
s(I45
I23
I1
I42
I24
tp822
I0
s(I64
I1
I1
I60
I3
tp823
I0
s(I30
I-38
I0
I27
I-29
tp824
I0
s(I19
I-40
I1
I19
I-41
tp825
I-100000
s(I42
I25
I0
I38
I22
tp826
I0
s(I19
I-30
I0
I15
I-34
tp827
I0
s(I42
I-22
I0
I38
I-26
tp828
I0
s(I8
I-21
I1
I4
I-20
tp829
I0
s(I57
I21
I0
I53
I30
tp830
I0
s(I15
I21
I0
I12
I17
tp831
I0
s(I42
I28
I0
I38
I24
tp832
I0
s(I42
I34
I0
I38
I43
tp833
I0
s(I57
I-3
I0
I53
I6
tp834
I0
s(I34
I41
I0
I30
I39
tp835
I0
s(I45
I-10
I0
I42
I-14
tp836
I0
s(I57
I36
I0
I53
I45
tp837
I0
s(I0
I4
I1
I64
I-10
tp838
I0
s(I12
I-37
I1
I8
I-36
tp839
I0
s(I57
I27
I0
I53
I25
tp840
I0
s(I30
I-30
I0
I27
I-34
tp841
I0
s(I0
I1
I0
I-2
I-1
tp842
I-100000
s(I30
I-42
I0
I27
I-33
tp843
I0
s(I12
I36
I0
I8
I32
tp844
I0
s(I60
I34
I0
I59
I36
tp845
I-100000
s(I23
I-17
I0
I19
I-7
tp846
I0
s(I57
I10
I1
I53
I12
tp847
I0
s(I12
I-19
I0
I8
I-23
tp848
I0
s(I64
I33
I1
I60
I35
tp849
I0
s(I34
I-5
I0
I30
I-9
tp850
I0
s(I42
I23
I0
I38
I19
tp851
I0
s(I12
I-5
I0
I8
I-9
tp852
I0
s(I27
I-9
I0
I23
I-11
tp853
I0
s(I49
I-11
I0
I45
I-15
tp854
I0
s(I34
I0
I0
I30
I-4
tp855
I0
s(I42
I27
I0
I38
I24
tp856
I0
s(I60
I-24
I0
I57
I-27
tp857
I100000
s(I42
I42
I0
I38
I51
tp858
I0
s(I34
I-35
I0
I32
I-37
tp859
I-100000
s(I27
I41
I0
I23
I39
tp860
I0
s(I12
I-42
I1
I8
I-40
tp861
I0
s(I0
I6
I1
I64
I-11
tp862
I0
s(I8
I-19
I0
I4
I-10
tp863
I0
s(I45
I38
I1
I42
I40
tp864
I0
s(I57
I-6
I0
I53
I4
tp865
I0
s(I4
I-21
I1
I3
I-22
tp866
I-100000
s(I0
I6
I0
I64
I-14
tp867
I0
s(I53
I-12
I0
I49
I-14
tp868
I0
s(I42
I-24
I0
I38
I-28
tp869
I0
s(I49
I3
I0
I45
I-1
tp870
I0
s(I38
I46
I0
I35
I53
tp871
I-100000
s(I42
I-40
I0
I38
I-31
tp872
I0
s(I53
I31
I0
I51
I36
tp873
I-100000
s(I49
I45
I1
I45
I47
tp874
I0
s(I60
I-19
I1
I57
I-17
tp875
I0
s(I57
I31
I0
I53
I40
tp876
I-100000
s(I60
I-9
I1
I57
I-7
tp877
I0
s(I34
I29
I1
I30
I31
tp878
I0
s(I0
I4
I1
I64
I-23
tp879
I0
s(I8
I-2
I1
I4
I-1
tp880
I0
s(I27
I44
I1
I23
I46
tp881
I0
s(I27
I22
I0
I23
I18
tp882
I0
s(I49
I13
I0
I45
I9
tp883
I0
s(I53
I17
I0
I49
I15
tp884
I0
s(I8
I1
I0
I4
I-2
tp885
I0
s(I42
I-20
I0
I38
I-24
tp886
I0
s(I8
I-2
I1
I4
I0
tp887
I0
s(I19
I-16
I1
I15
I-15
tp888
I0
s(I60
I-12
I1
I57
I-10
tp889
I0
s(I34
I41
I0
I32
I44
tp890
I-100000
s(I42
I32
I0
I38
I29
tp891
I0
s(I19
I-39
I0
I15
I-43
tp892
I0
s(I53
I8
I0
I49
I5
tp893
I0
s(I60
I-3
I1
I57
I-2
tp894
I100000
s(I15
I2
I0
I12
I-2
tp895
I0
s(I49
I10
I0
I45
I6
tp896
I0
s(I23
I-14
I1
I19
I-12
tp897
I0
s(I64
I28
I1
I60
I30
tp898
I0
s(I38
I24
I1
I34
I25
tp899
I0
s(I27
I40
I0
I23
I48
tp900
I-100000
s(I34
I-17
I0
I30
I-21
tp901
I0
s(I27
I-23
I0
I23
I-27
tp902
I0
s(I57
I-10
I0
I53
I-13
tp903
I0
s(I30
I35
I0
I27
I44
tp904
I0
s(I30
I-27
I0
I27
I-31
tp905
I0
s(I45
I-12
I0
I42
I-15
tp906
I0
s(I53
I24
I1
I49
I26
tp907
I0
s(I4
I0
I1
I0
I3
tp908
I0
s(I27
I-20
I1
I23
I-19
tp909
I0
s(I8
I17
I0
I4
I13
tp910
I0
s(I23
I34
I0
I19
I43
tp911
I0
s(I42
I-27
I0
I38
I-31
tp912
I0
s(I49
I8
I0
I45
I5
tp913
I0
s(I12
I-9
I0
I8
I0
tp914
I0
s(I60
I10
I0
I57
I17
tp915
I-100000
s(I53
I15
I0
I49
I13
tp916
I0
s(I19
I-10
I1
I15
I-9
tp917
I0
s(I45
I-24
I0
I42
I-27
tp918
I0
s(I4
I1
I0
I0
I-1
tp919
I0
s(I49
I31
I1
I45
I32
tp920
I0
s(I53
I14
I0
I49
I11
tp921
I0
s(I30
I30
I0
I28
I36
tp922
I-100000
s(I38
I-23
I0
I34
I-27
tp923
I0
s(I0
I6
I1
I64
I7
tp924
I0
s(I42
I-1
I0
I38
I-5
tp925
I0
s(I12
I-28
I0
I8
I-19
tp926
I0
s(I0
I9
I0
I64
I-11
tp927
I0
s(I57
I30
I1
I53
I32
tp928
I0
s(I60
I19
I1
I57
I20
tp929
I100000
s(I8
I-6
I1
I4
I-4
tp930
I0
s(I19
I-40
I1
I15
I-39
tp931
I0
s(I0
I1
I1
I64
I18
tp932
I0
s(I27
I-7
I1
I23
I-6
tp933
I0
s(I45
I10
I0
I42
I6
tp934
I0
s(I12
I0
I0
I8
I-4
tp935
I0
s(I4
I-18
I0
I3
I-18
tp936
I-100000
s(I0
I4
I1
I64
I34
tp937
I0
s(I30
I-26
I0
I27
I-29
tp938
I0
s(I19
I-40
I0
I19
I-41
tp939
I-100000
s(I64
I-9
I1
I60
I-7
tp940
I0
s(I23
I47
I0
I22
I48
tp941
I-100000
s(I49
I-5
I0
I45
I-9
tp942
I0
s(I45
I21
I0
I42
I17
tp943
I0
s(I4
I-6
I0
I3
I-7
tp944
I-100000
s(I19
I-44
I1
I19
I-45
tp945
I-100000
s(I15
I40
I0
I12
I36
tp946
I0
s(I42
I45
I0
I38
I43
tp947
I0
s(I12
I-37
I0
I8
I-41
tp948
I-100000
s(I64
I22
I1
I60
I24
tp949
I0
s(I27
I-29
I0
I23
I-33
tp950
I0
s(I30
I-14
I0
I27
I-18
tp951
I0
s(I49
I28
I0
I47
I32
tp952
I-100000
s(I8
I-9
I0
I4
I-12
tp953
I0
s(I60
I-20
I0
I57
I-23
tp954
I100000
s(I8
I-8
I1
I4
I-6
tp955
I0
s(I57
I0
I0
I53
I10
tp956
I0
s(I12
I-10
I1
I8
I-7
tp957
I0
s(I38
I33
I1
I34
I35
tp958
I0
s(I0
I2
I1
I64
I-13
tp959
I0
s(I30
I-5
I0
I27
I-9
tp960
I0
s(I42
I-4
I0
I38
I6
tp961
I0
s(I49
I34
I0
I45
I43
tp962
I0
s(I27
I38
I1
I24
I40
tp963
I-100000
s(I30
I21
I0
I27
I30
tp964
I0
s(I45
I35
I0
I42
I45
tp965
I0
s(I60
I34
I1
I57
I36
tp966
I0
s(I45
I-11
I0
I42
I-15
tp967
I0
s(I60
I38
I1
I57
I40
tp968
I0
s(I12
I1
I0
I8
I10
tp969
I0
s(I42
I-4
I0
I38
I5
tp970
I0
s(I12
I-29
I0
I8
I-33
tp971
I0
s(I4
I-34
I1
I3
I-33
tp972
I-100000
s(I0
I6
I1
I64
I37
tp973
I0
s(I27
I-14
I0
I23
I-17
tp974
I0
s(I4
I-9
I1
I3
I-9
tp975
I-100000
s(I45
I-17
I0
I42
I-21
tp976
I-100000
s(I49
I36
I1
I45
I38
tp977
I0
s(I27
I11
I0
I23
I7
tp978
I0
s(I34
I-4
I0
I30
I-7
tp979
I0
s(I27
I0
I0
I23
I-4
tp980
I0
s(I8
I-14
I0
I4
I-4
tp981
I0
s(I60
I-16
I1
I57
I-15
tp982
I100000
s(I27
I37
I1
I23
I40
tp983
I-100000
s(I49
I1
I0
I45
I-2
tp984
I0
s(I42
I24
I0
I38
I34
tp985
I0
s(I19
I-32
I1
I15
I-30
tp986
I0
s(I42
I21
I0
I38
I18
tp987
I0
s(I60
I1
I0
I57
I9
tp988
I100000
s(I0
I8
I0
I64
I-10
tp989
I0
s(I19
I-7
I0
I15
I-10
tp990
I0
s(I15
I50
I0
I14
I52
tp991
I-100000
s(I27
I-5
I0
I23
I4
tp992
I0
s(I60
I32
I0
I57
I41
tp993
I0
s(I8
I-11
I1
I4
I-9
tp994
I0
s(I0
I9
I0
I64
I26
tp995
I0
s(I42
I45
I0
I39
I52
tp996
I-100000
s(I34
I-27
I0
I32
I-29
tp997
I-100000
s(I64
I18
I0
I60
I15
tp998
I0
s(I27
I-13
I1
I23
I-12
tp999
I0
s(I57
I21
I0
I53
I19
tp1000
I0
s(I30
I3
I0
I27
I-1
tp1001
I0
s(I42
I32
I0
I38
I41
tp1002
I0
s(I34
I26
I0
I30
I22
tp1003
I0
s(I45
I-1
I0
I42
I-4
tp1004
I0
s(I4
I-20
I0
I3
I-18
tp1005
I-100000
s(I53
I-20
I0
I49
I-24
tp1006
I0
s(I0
I9
I0
I64
I-6
tp1007
I0
s(I53
I15
I0
I49
I12
tp1008
I0
s(I49
I22
I0
I45
I18
tp1009
I0
s(I53
I37
I0
I50
I44
tp1010
I-100000
s(I42
I-14
I0
I38
I-18
tp1011
I0
s(I15
I-42
I1
I12
I-41
tp1012
I0
s(I42
I39
I0
I41
I40
tp1013
I-100000
s(I42
I49
I0
I38
I47
tp1014
I0
s(I8
I-6
I0
I4
I-10
tp1015
I0
s(I42
I50
I1
I38
I52
tp1016
I-100000
s(I45
I45
I1
I42
I48
tp1017
I0
s(I0
I7
I0
I64
I25
tp1018
I0
s(I60
I-10
I1
I57
I-8
tp1019
I100000
s(I45
I23
I0
I45
I24
tp1020
I-100000
s(I49
I2
I0
I45
I-1
tp1021
I0
s(I42
I13
I0
I38
I10
tp1022
I0
s(I45
I-3
I0
I42
I-7
tp1023
I0
s(I8
I-2
I0
I4
I8
tp1024
I0
s(I15
I-1
I0
I12
I-5
tp1025
I0
s(I57
I8
I0
I53
I4
tp1026
I0
s(I45
I17
I0
I42
I14
tp1027
I0
s(I19
I-1
I0
I15
I-4
tp1028
I0
s(I64
I4
I1
I60
I5
tp1029
I0
s(I64
I18
I1
I60
I19
tp1030
I0
s(I38
I5
I0
I34
I1
tp1031
I0
s(I27
I-29
I0
I23
I-32
tp1032
I0
s(I30
I-6
I1
I27
I-5
tp1033
I0
s(I64
I-1
I0
I62
I4
tp1034
I-100000
s(I38
I32
I0
I34
I41
tp1035
I0
s(I49
I43
I1
I45
I46
tp1036
I0
s(I42
I3
I0
I38
I-1
tp1037
I0
s(I45
I47
I1
I44
I48
tp1038
I-100000
s(I34
I20
I0
I30
I16
tp1039
I0
s(I19
I-31
I1
I15
I-30
tp1040
I0
s(I4
I-10
I0
I3
I-8
tp1041
I-100000
s(I8
I-28
I0
I4
I-19
tp1042
I0
s(I38
I34
I1
I34
I35
tp1043
I0
s(I60
I-16
I0
I58
I-11
tp1044
I-100000
s(I19
I-20
I1
I19
I-21
tp1045
I-100000
s(I12
I-22
I0
I8
I-13
tp1046
I0
s(I64
I2
I1
I60
I3
tp1047
I0
s(I0
I2
I1
I64
I-8
tp1048
I0
s(I38
I28
I0
I35
I36
tp1049
I-100000
s(I42
I-5
I0
I38
I-8
tp1050
I0
s(I8
I8
I0
I4
I6
tp1051
I0
s(I30
I-10
I0
I27
I-13
tp1052
I0
s(I45
I-9
I0
I42
I-13
tp1053
I-100000
s(I4
I30
I0
I3
I31
tp1054
I-100000
s(I34
I35
I1
I30
I37
tp1055
I0
s(I45
I28
I1
I42
I30
tp1056
I0
s(I42
I-35
I0
I38
I-39
tp1057
I0
s(I64
I25
I0
I60
I21
tp1058
I0
s(I15
I38
I0
I14
I40
tp1059
I-100000
s(I49
I27
I0
I49
I28
tp1060
I-100000
s(I64
I8
I1
I60
I9
tp1061
I0
s(I4
I-12
I1
I3
I-12
tp1062
I-100000
s(I23
I26
I0
I19
I23
tp1063
I0
s(I4
I4
I0
I0
I0
tp1064
I0
s(I45
I8
I0
I42
I4
tp1065
I0
s(I53
I41
I1
I49
I44
tp1066
I-100000
s(I38
I47
I0
I38
I48
tp1067
I-100000
s(I8
I-40
I0
I4
I-30
tp1068
I0
s(I64
I16
I0
I60
I25
tp1069
I-100000
s(I19
I-33
I1
I15
I-32
tp1070
I0
s(I15
I0
I0
I12
I-4
tp1071
I0
s(I38
I16
I0
I34
I12
tp1072
I0
s(I60
I26
I0
I57
I33
tp1073
I-100000
s(I19
I5
I0
I15
I2
tp1074
I0
s(I12
I12
I0
I8
I8
tp1075
I0
s(I27
I37
I1
I23
I39
tp1076
I0
s(I34
I36
I1
I30
I38
tp1077
I0
s(I60
I-9
I0
I58
I-3
tp1078
I-100000
s(I42
I4
I0
I38
I0
tp1079
I0
s(I45
I14
I0
I42
I11
tp1080
I0
s(I12
I-2
I1
I8
I0
tp1081
I0
s(I8
I-24
I0
I4
I-26
tp1082
I0
s(I53
I25
I0
I49
I23
tp1083
I0
s(I12
I5
I0
I8
I1
tp1084
I0
s(I64
I0
I0
I60
I9
tp1085
I-100000
s(I19
I-20
I1
I15
I-18
tp1086
I0
s(I64
I36
I1
I60
I38
tp1087
I0
s(I0
I10
I0
I64
I-30
tp1088
I0
s(I19
I-33
I0
I15
I-37
tp1089
I0
s(I60
I4
I1
I57
I5
tp1090
I100000
s(I45
I-28
I0
I42
I-31
tp1091
I0
s(I60
I15
I0
I58
I20
tp1092
I-100000
s(I23
I-12
I1
I23
I-13
tp1093
I-100000
s(I38
I0
I0
I34
I-3
tp1094
I0
s(I23
I-24
I0
I19
I-28
tp1095
I0
s(I19
I13
I0
I15
I9
tp1096
I0
s(I4
I-6
I1
I3
I-6
tp1097
I-100000
s(I0
I5
I1
I64
I-9
tp1098
I0
s(I15
I-26
I1
I12
I-24
tp1099
I0
s(I60
I26
I1
I57
I28
tp1100
I100000
s(I4
I-21
I0
I3
I-20
tp1101
I-100000
s(I34
I-20
I0
I30
I-23
tp1102
I0
s(I60
I25
I1
I57
I27
tp1103
I100000
s(I27
I32
I0
I23
I40
tp1104
I-100000
s(I15
I40
I1
I12
I42
tp1105
I0
s(I8
I-4
I1
I4
I-2
tp1106
I0
s(I0
I4
I1
I64
I-31
tp1107
I0
s(I23
I-37
I0
I19
I-40
tp1108
I0
s(I49
I47
I1
I49
I48
tp1109
I-100000
s(I27
I18
I0
I23
I15
tp1110
I0
s(I60
I-10
I0
I57
I-13
tp1111
I100000
s(I15
I-7
I1
I12
I-6
tp1112
I0
s(I27
I50
I0
I26
I52
tp1113
I-100000
s(I15
I16
I0
I12
I12
tp1114
I0
s(I60
I36
I0
I58
I40
tp1115
I-100000
s(I45
I47
I0
I42
I45
tp1116
I0
s(I27
I24
I0
I23
I32
tp1117
I-100000
s(I45
I38
I0
I45
I40
tp1118
I-100000
s(I12
I44
I0
I10
I48
tp1119
I-100000
s(I23
I-10
I0
I19
I-13
tp1120
I0
s(I64
I29
I1
I60
I31
tp1121
I0
s(I42
I29
I0
I38
I39
tp1122
I0
s(I64
I-16
I1
I60
I-14
tp1123
I0
s(I64
I10
I0
I61
I7
tp1124
I-100000
s(I4
I-12
I1
I3
I-11
tp1125
I-100000
s(I57
I30
I0
I53
I39
tp1126
I0
s(I60
I-13
I1
I57
I-12
tp1127
I0
s(I60
I7
I0
I57
I4
tp1128
I0
s(I12
I-14
I0
I8
I-5
tp1129
I0
s(I8
I28
I1
I4
I30
tp1130
I0
s(I53
I0
I0
I49
I-2
tp1131
I0
s(I34
I40
I0
I30
I49
tp1132
I0
s(I19
I-27
I0
I15
I-29
tp1133
I0
s(I53
I39
I0
I53
I40
tp1134
I-100000
s(I19
I-10
I0
I17
I-13
tp1135
I-100000
s(I38
I-22
I0
I34
I-26
tp1136
I0
s(I19
I-27
I1
I15
I-25
tp1137
I0
s(I45
I27
I0
I42
I36
tp1138
I-100000
s(I60
I-8
I1
I57
I-6
tp1139
I0
s(I42
I-2
I0
I38
I-6
tp1140
I0
s(I8
I-26
I1
I4
I-24
tp1141
I0
s(I27
I-18
I1
I23
I-17
tp1142
I0
s(I45
I10
I0
I42
I7
tp1143
I0
s(I8
I2
I0
I4
I-2
tp1144
I0
s(I8
I-9
I0
I4
I1
tp1145
I0
s(I27
I8
I0
I23
I5
tp1146
I0
s(I23
I40
I0
I19
I36
tp1147
I0
s(I0
I4
I0
I-3
I12
tp1148
I-100000
s(I45
I32
I0
I42
I28
tp1149
I0
s(I27
I1
I0
I23
I-3
tp1150
I0
s(I64
I-12
I0
I60
I-16
tp1151
I0
s(I12
I-37
I0
I8
I-28
tp1152
I0
s(I38
I23
I0
I34
I19
tp1153
I0
s(I15
I44
I1
I12
I46
tp1154
I0
s(I45
I-14
I0
I42
I-18
tp1155
I0
s(I27
I50
I0
I23
I48
tp1156
I0
s(I53
I25
I1
I49
I28
tp1157
I0
s(I8
I0
I0
I4
I-2
tp1158
I0
s(I49
I31
I0
I45
I28
tp1159
I0
s(I4
I0
I0
I2
I-1
tp1160
I-100000
s(I60
I-2
I1
I57
I0
tp1161
I100000
s(I38
I43
I0
I34
I41
tp1162
I0
s(I4
I8
I0
I0
I4
tp1163
I0
s(I19
I-34
I1
I15
I-32
tp1164
I0
s(I27
I-31
I0
I23
I-35
tp1165
I0
s(I38
I-2
I0
I34
I-5
tp1166
I0
s(I60
I18
I0
I57
I26
tp1167
I100000
s(I53
I31
I1
I49
I34
tp1168
I0
s(I38
I2
I0
I34
I0
tp1169
I0
s(I45
I-5
I1
I42
I-4
tp1170
I0
s(I42
I23
I0
I38
I20
tp1171
I0
s(I53
I-1
I0
I49
I-4
tp1172
I0
s(I42
I38
I1
I38
I40
tp1173
I-100000
s(I53
I27
I0
I53
I28
tp1174
I-100000
s(I38
I31
I1
I38
I32
tp1175
I-100000
s(I38
I-26
I0
I34
I-29
tp1176
I0
s(I27
I-25
I1
I23
I-24
tp1177
I0
s(I38
I18
I0
I34
I14
tp1178
I0
s(I23
I9
I0
I19
I5
tp1179
I0
s(I12
I-29
I0
I8
I-20
tp1180
I0
s(I38
I-20
I0
I34
I-23
tp1181
I0
s(I57
I-6
I0
I53
I3
tp1182
I0
s(I49
I21
I1
I45
I22
tp1183
I0
s(I12
I37
I0
I8
I33
tp1184
I0
s(I23
I26
I0
I19
I35
tp1185
I0
s(I57
I-2
I0
I53
I8
tp1186
I0
s(I64
I-25
I1
I60
I-23
tp1187
I0
s(I64
I-4
I1
I60
I-3
tp1188
I0
s(I49
I38
I0
I46
I44
tp1189
I-100000
s(I8
I32
I0
I4
I28
tp1190
I0
s(I60
I6
I0
I57
I13
tp1191
I-100000
s(I19
I-35
I1
I15
I-33
tp1192
I0
s(I0
I4
I1
I64
I-22
tp1193
I0
s(I4
I-10
I1
I3
I-10
tp1194
I-100000
s(I12
I42
I0
I11
I44
tp1195
I-100000
s(I45
I23
I0
I42
I20
tp1196
I0
s(I0
I8
I0
I64
I26
tp1197
I0
s(I0
I2
I1
I64
I-21
tp1198
I0
s(I27
I42
I1
I23
I44
tp1199
I0
s(I19
I-13
I1
I15
I-10
tp1200
I0
s(I60
I-2
I0
I57
I5
tp1201
I-100000
s(I53
I12
I1
I49
I14
tp1202
I0
s(I0
I0
I0
I64
I-14
tp1203
I0
s(I49
I7
I0
I45
I4
tp1204
I0
s(I49
I17
I1
I45
I18
tp1205
I0
s(I19
I-16
I1
I15
I-14
tp1206
I0
s(I60
I16
I0
I58
I20
tp1207
I-100000
s(I30
I-29
I0
I27
I-33
tp1208
I0
s(I42
I34
I0
I41
I36
tp1209
I-100000
s(I53
I47
I1
I53
I48
tp1210
I-100000
s(I4
I-14
I1
I3
I-15
tp1211
I-100000
s(I57
I8
I0
I53
I18
tp1212
I0
s(I27
I39
I1
I23
I40
tp1213
I0
s(I0
I3
I1
I64
I-7
tp1214
I0
s(I49
I24
I0
I45
I20
tp1215
I0
s(I53
I0
I0
I49
I-4
tp1216
I0
s(I8
I36
I0
I4
I32
tp1217
I0
s(I12
I-23
I1
I8
I-22
tp1218
I0
s(I53
I19
I0
I49
I17
tp1219
I0
s(I60
I-18
I1
I57
I-17
tp1220
I100000
s(I0
I0
I0
I64
I6
tp1221
I0
s(I42
I31
I1
I38
I32
tp1222
I0
s(I12
I-17
I1
I8
I-15
tp1223
I0
s(I53
I27
I0
I49
I25
tp1224
I0
s(I57
I13
I0
I53
I22
tp1225
I0
s(I53
I24
I0
I49
I33
tp1226
I0
s(I4
I-16
I1
I3
I-17
tp1227
I-100000
s(I49
I51
I1
I49
I52
tp1228
I-100000
s(I0
I8
I0
I64
I-18
tp1229
I0
s(I45
I47
I1
I45
I48
tp1230
I-100000
s(I19
I-9
I0
I15
I-13
tp1231
I0
s(I12
I16
I0
I8
I13
tp1232
I0
s(I57
I12
I0
I53
I8
tp1233
I0
s(I45
I6
I0
I42
I2
tp1234
I0
s(I49
I14
I0
I45
I23
tp1235
I0
s(I15
I25
I0
I12
I21
tp1236
I0
s(I27
I-20
I1
I23
I-18
tp1237
I0
s(I42
I-7
I0
I38
I-10
tp1238
I0
s(I60
I-29
I1
I57
I-27
tp1239
I0
s(I0
I9
I0
I64
I18
tp1240
I0
s(I27
I-11
I1
I23
I-10
tp1241
I0
s(I19
I4
I0
I15
I1
tp1242
I0
s(I60
I29
I0
I59
I32
tp1243
I-100000
s(I0
I5
I1
I64
I10
tp1244
I0
s(I23
I-8
I1
I19
I-7
tp1245
I0
s(I42
I44
I0
I38
I52
tp1246
I-100000
s(I27
I7
I0
I23
I3
tp1247
I0
s(I30
I-21
I0
I27
I-24
tp1248
I0
s(I12
I40
I0
I8
I48
tp1249
I-100000
s(I0
I6
I1
I64
I4
tp1250
I0
s(I53
I11
I0
I49
I8
tp1251
I0
s(I19
I-6
I0
I15
I-10
tp1252
I0
s(I12
I-42
I0
I8
I-32
tp1253
I0
s(I34
I25
I0
I30
I21
tp1254
I0
s(I60
I28
I0
I60
I29
tp1255
I-100000
s(I4
I-37
I1
I3
I-37
tp1256
I-100000
s(I45
I19
I0
I42
I29
tp1257
I0
s(I34
I19
I0
I30
I28
tp1258
I0
s(I0
I4
I1
I64
I-19
tp1259
I0
s(I34
I30
I1
I31
I32
tp1260
I-100000
s(I4
I-10
I1
I3
I-9
tp1261
I-100000
s(I60
I-2
I0
I57
I-6
tp1262
I0
s(I4
I-8
I1
I3
I-7
tp1263
I-100000
s(I27
I31
I1
I23
I33
tp1264
I0
s(I8
I-18
I1
I4
I-17
tp1265
I0
s(I34
I9
I0
I30
I5
tp1266
I0
s(I12
I7
I0
I8
I3
tp1267
I0
s(I15
I-2
I0
I12
I-5
tp1268
I0
s(I38
I33
I0
I34
I30
tp1269
I0
s(I64
I25
I1
I60
I26
tp1270
I0
s(I60
I-14
I0
I57
I-7
tp1271
I-100000
s(I15
I-14
I1
I12
I-12
tp1272
I0
s(I12
I-18
I0
I8
I-20
tp1273
I0
s(I27
I-4
I0
I23
I-7
tp1274
I0
s(I23
I-36
I0
I19
I-40
tp1275
I0
s(I30
I-1
I0
I27
I-4
tp1276
I0
s(I4
I-34
I0
I3
I-35
tp1277
I-100000
s(I4
I-33
I0
I3
I-31
tp1278
I-100000
s(I27
I-26
I0
I23
I-30
tp1279
I0
s(I0
I6
I0
I64
I-4
tp1280
I0
s(I8
I-19
I1
I4
I-17
tp1281
I0
s(I60
I37
I1
I57
I39
tp1282
I100000
s(I8
I-16
I0
I4
I-18
tp1283
I0
s(I42
I-11
I0
I38
I-14
tp1284
I0
s(I23
I38
I0
I19
I34
tp1285
I0
s(I23
I39
I1
I19
I41
tp1286
I0
s(I57
I-2
I0
I53
I7
tp1287
I0
s(I4
I-10
I0
I3
I-11
tp1288
I-100000
s(I4
I-22
I0
I3
I-20
tp1289
I-100000
s(I12
I-11
I0
I8
I-14
tp1290
I0
s(I64
I14
I0
I60
I10
tp1291
I0
s(I12
I-9
I1
I8
I-7
tp1292
I0
s(I27
I34
I1
I23
I36
tp1293
I0
s(I53
I45
I1
I49
I48
tp1294
I-100000
s(I57
I-21
I0
I53
I-12
tp1295
I0
s(I60
I11
I0
I57
I8
tp1296
I0
s(I38
I-9
I0
I34
I-13
tp1297
I0
s(I0
I6
I1
I64
I-5
tp1298
I0
s(I64
I26
I0
I61
I33
tp1299
I-100000
s(I53
I12
I0
I49
I21
tp1300
I0
s(I15
I-34
I1
I12
I-32
tp1301
I0
s(I0
I2
I1
I64
I-16
tp1302
I0
s(I34
I1
I0
I30
I-3
tp1303
I0
s(I8
I2
I0
I4
I11
tp1304
I0
s(I8
I25
I0
I4
I21
tp1305
I0
s(I57
I32
I1
I53
I34
tp1306
I0
s(I42
I-3
I0
I38
I-7
tp1307
I0
s(I8
I12
I0
I4
I9
tp1308
I0
s(I34
I-27
I1
I30
I-26
tp1309
I0
s(I45
I48
I1
I42
I50
tp1310
I0
s(I64
I-22
I1
I60
I-20
tp1311
I0
s(I23
I-32
I0
I19
I-23
tp1312
I0
s(I23
I2
I0
I19
I-1
tp1313
I0
s(I8
I33
I0
I4
I29
tp1314
I0
s(I60
I38
I1
I57
I39
tp1315
I100000
s(I12
I26
I0
I8
I23
tp1316
I0
s(I38
I-15
I0
I34
I-19
tp1317
I0
s(I38
I21
I0
I34
I18
tp1318
I0
s(I19
I-44
I0
I19
I-45
tp1319
I-100000
s(I38
I26
I1
I34
I28
tp1320
I0
s(I49
I47
I1
I45
I48
tp1321
I0
s(I30
I17
I0
I27
I13
tp1322
I0
s(I64
I-11
I1
I60
I-9
tp1323
I0
s(I53
I27
I1
I49
I30
tp1324
I0
s(I45
I13
I0
I42
I10
tp1325
I0
s(I64
I26
I1
I60
I27
tp1326
I0
s(I57
I27
I1
I53
I29
tp1327
I0
s(I23
I36
I0
I19
I45
tp1328
I0
s(I12
I-33
I0
I8
I-36
tp1329
I0
s(I19
I-40
I0
I15
I-30
tp1330
I0
s(I64
I-6
I1
I60
I-5
tp1331
I0
s(I53
I19
I0
I51
I24
tp1332
I-100000
s(I0
I8
I0
I64
I-7
tp1333
I0
s(I8
I-36
I1
I4
I-35
tp1334
I0
s(I45
I-20
I0
I42
I-23
tp1335
I0
s(I12
I-12
I1
I8
I-10
tp1336
I0
s(I57
I25
I1
I53
I27
tp1337
I0
s(I49
I25
I1
I45
I28
tp1338
I0
s(I19
I-6
I0
I15
I3
tp1339
I0
s(I34
I6
I0
I30
I2
tp1340
I0
s(I34
I4
I0
I30
I1
tp1341
I0
s(I60
I-3
I0
I59
I0
tp1342
I-100000
s(I49
I41
I1
I45
I43
tp1343
I0
s(I60
I-25
I0
I57
I-19
tp1344
I-100000
s(I4
I13
I0
I0
I9
tp1345
I0
s(I19
I-1
I0
I15
I-5
tp1346
I0
s(I19
I-31
I0
I15
I-34
tp1347
I0
s(I4
I-20
I0
I3
I-21
tp1348
I-100000
s(I57
I24
I0
I53
I22
tp1349
I0
s(I53
I47
I0
I53
I48
tp1350
I-100000
s(I12
I-3
I0
I8
I-6
tp1351
I0
s(I34
I46
I1
I30
I48
tp1352
I0
s(I53
I-27
I0
I49
I-31
tp1353
I0
s(I27
I16
I0
I23
I13
tp1354
I0
s(I0
I4
I1
I64
I-7
tp1355
I0
s(I42
I17
I0
I40
I20
tp1356
I-100000
s(I27
I-5
I0
I23
I-7
tp1357
I0
s(I64
I39
I0
I60
I35
tp1358
I0
s(I64
I41
I0
I61
I48
tp1359
I-100000
s(I23
I39
I1
I23
I40
tp1360
I-100000
s(I34
I40
I0
I32
I44
tp1361
I-100000
s(I19
I35
I1
I15
I37
tp1362
I0
s(I23
I-10
I0
I19
I0
tp1363
I0
s(I60
I-10
I1
I57
I-9
tp1364
I100000
s(I15
I4
I0
I12
I0
tp1365
I0
s(I4
I-5
I1
I3
I-5
tp1366
I-100000
s(I60
I-14
I0
I57
I-18
tp1367
I0
s(I57
I22
I1
I53
I24
tp1368
I0
s(I49
I-13
I0
I45
I-17
tp1369
I0
s(I23
I-30
I0
I19
I-33
tp1370
I0
s(I45
I11
I0
I42
I8
tp1371
I0
s(I23
I15
I0
I19
I11
tp1372
I0
s(I45
I-2
I0
I42
I-6
tp1373
I0
s(I34
I-15
I0
I32
I-17
tp1374
I-100000
s(I12
I-6
I1
I8
I-5
tp1375
I0
s(I57
I33
I1
I53
I35
tp1376
I0
s(I12
I-36
I0
I11
I-37
tp1377
I-100000
s(I38
I-5
I0
I34
I-8
tp1378
I0
s(I27
I-33
I0
I23
I-37
tp1379
I0
s(I53
I-9
I0
I49
I-11
tp1380
I0
s(I64
I-10
I0
I60
I-13
tp1381
I0
s(I53
I4
I0
I49
I1
tp1382
I0
s(I64
I10
I1
I60
I12
tp1383
I0
s(I0
I6
I1
I64
I44
tp1384
I0
s(I34
I-3
I0
I30
I-6
tp1385
I0
s(I8
I-28
I0
I4
I-32
tp1386
I0
s(I15
I-17
I0
I12
I-20
tp1387
I0
s(I57
I-27
I0
I53
I-18
tp1388
I0
s(I23
I-6
I0
I19
I4
tp1389
I0
s(I4
I-35
I1
I3
I-35
tp1390
I-100000
s(I19
I43
I0
I19
I45
tp1391
I-100000
s(I64
I-15
I0
I61
I-7
tp1392
I-100000
s(I38
I18
I0
I34
I27
tp1393
I0
s(I42
I35
I0
I38
I32
tp1394
I0
s(I38
I-14
I0
I34
I-18
tp1395
I0
s(I15
I-13
I0
I12
I-4
tp1396
I0
s(I12
I-41
I1
I8
I-39
tp1397
I0
s(I23
I-21
I1
I19
I-20
tp1398
I0
s(I23
I-28
I0
I22
I-29
tp1399
I-100000
s(I60
I-15
I1
I57
I-14
tp1400
I100000
s(I45
I12
I0
I42
I8
tp1401
I0
s(I60
I-18
I0
I57
I-11
tp1402
I-100000
s(I27
I47
I1
I26
I48
tp1403
I-100000
s(I60
I9
I1
I57
I10
tp1404
I100000
s(I60
I21
I0
I57
I18
tp1405
I100000
s(I4
I-3
I0
I3
I-2
tp1406
I-100000
s(I8
I-14
I0
I4
I-18
tp1407
I0
s(I64
I20
I1
I60
I21
tp1408
I0
s(I38
I14
I0
I34
I10
tp1409
I0
s(I15
I-26
I1
I12
I-25
tp1410
I0
s(I23
I-12
I0
I22
I-13
tp1411
I-100000
s(I64
I20
I0
I60
I29
tp1412
I-100000
s(I60
I31
I1
I57
I32
tp1413
I100000
s(I27
I34
I0
I26
I36
tp1414
I-100000
s(I15
I-29
I0
I12
I-33
tp1415
I0
s(I57
I-12
I0
I53
I-16
tp1416
I0
s(I64
I-6
I0
I60
I-9
tp1417
I0
s(I23
I-14
I0
I20
I-17
tp1418
I-100000
s(I45
I31
I1
I45
I32
tp1419
I-100000
s(I19
I38
I0
I16
I45
tp1420
I-100000
s(I23
I-31
I0
I19
I-34
tp1421
I0
s(I8
I-19
I0
I4
I-21
tp1422
I0
s(I60
I15
I1
I57
I16
tp1423
I0
s(I64
I22
I0
I60
I19
tp1424
I0
s(I34
I-7
I1
I30
I-6
tp1425
I0
s(I15
I-22
I0
I13
I-25
tp1426
I-100000
s(I53
I6
I0
I49
I4
tp1427
I0
s(I4
I25
I0
I3
I23
tp1428
I-100000
s(I38
I27
I0
I34
I23
tp1429
I0
s(I45
I33
I0
I42
I29
tp1430
I0
s(I34
I30
I0
I32
I36
tp1431
I-100000
s(I38
I3
I0
I34
I-1
tp1432
I0
s(I60
I30
I1
I57
I31
tp1433
I100000
s(I30
I15
I0
I27
I11
tp1434
I0
s(I34
I38
I0
I30
I34
tp1435
I0
s(I0
I4
I1
I64
I-30
tp1436
I0
s(I38
I24
I0
I34
I21
tp1437
I0
s(I42
I-16
I0
I38
I-20
tp1438
I0
s(I19
I-19
I0
I15
I-23
tp1439
I0
s(I53
I13
I0
I49
I23
tp1440
I0
s(I0
I8
I0
I64
I18
tp1441
I0
s(I0
I2
I1
I64
I-29
tp1442
I0
s(I60
I-20
I1
I57
I-19
tp1443
I100000
s(I12
I-16
I0
I11
I-17
tp1444
I-100000
s(I15
I-13
I1
I12
I-11
tp1445
I0
s(I23
I39
I0
I23
I40
tp1446
I-100000
s(I23
I-25
I1
I19
I-24
tp1447
I0
s(I0
I0
I0
I64
I-6
tp1448
I0
s(I60
I-8
I0
I57
I1
tp1449
I0
s(I27
I43
I0
I23
I40
tp1450
I0
s(I53
I15
I1
I53
I16
tp1451
I-100000
s(I4
I-33
I1
I3
I-33
tp1452
I-100000
s(I15
I-4
I0
I12
I-7
tp1453
I0
s(I64
I-32
I0
I61
I-24
tp1454
I-100000
s(I42
I41
I1
I38
I43
tp1455
I0
s(I60
I-4
I1
I57
I-3
tp1456
I100000
s(I23
I-15
I1
I19
I-14
tp1457
I0
s(I0
I3
I1
I64
I-15
tp1458
I0
s(I57
I-15
I0
I53
I-6
tp1459
I0
s(I53
I19
I0
I49
I16
tp1460
I0
s(I30
I-9
I0
I27
I-13
tp1461
I0
s(I19
I9
I0
I15
I5
tp1462
I0
s(I27
I-17
I0
I23
I-21
tp1463
I0
s(I45
I43
I1
I44
I44
tp1464
I-100000
s(I0
I1
I1
I64
I-6
tp1465
I0
s(I0
I0
I0
I64
I14
tp1466
I0
s(I64
I11
I0
I62
I16
tp1467
I-100000
s(I15
I36
I0
I12
I33
tp1468
I0
s(I64
I-16
I0
I61
I-8
tp1469
I-100000
s(I15
I-21
I1
I12
I-20
tp1470
I0
s(I34
I16
I0
I30
I12
tp1471
I0
s(I53
I37
I0
I49
I47
tp1472
I0
s(I4
I-25
I0
I3
I-23
tp1473
I-100000
s(I12
I-3
I1
I8
I0
tp1474
I0
s(I64
I-21
I1
I60
I-19
tp1475
I0
s(I60
I-11
I1
I57
I-9
tp1476
I0
s(I45
I-8
I0
I42
I-12
tp1477
I0
s(I45
I38
I0
I42
I35
tp1478
I0
s(I57
I11
I0
I53
I21
tp1479
I0
s(I53
I23
I0
I49
I21
tp1480
I0
s(I8
I-13
I0
I4
I-4
tp1481
I0
s(I53
I18
I0
I49
I15
tp1482
I0
s(I45
I37
I0
I42
I33
tp1483
I0
s(I57
I16
I0
I53
I26
tp1484
I0
s(I8
I-16
I1
I4
I-14
tp1485
I0
s(I23
I-19
I0
I19
I-22
tp1486
I0
s(I38
I33
I0
I36
I36
tp1487
I-100000
s(I4
I-2
I0
I0
I7
tp1488
I0
s(I38
I23
I0
I34
I20
tp1489
I0
s(I64
I4
I1
I60
I6
tp1490
I0
s(I53
I41
I0
I49
I39
tp1491
I0
s(I34
I-25
I0
I30
I-29
tp1492
I0
s(I19
I28
I0
I15
I24
tp1493
I0
s(I19
I-23
I0
I15
I-25
tp1494
I0
s(I60
I0
I0
I58
I5
tp1495
I-100000
s(I12
I-10
I0
I8
I-12
tp1496
I0
s(I57
I45
I1
I53
I47
tp1497
I0
s(I23
I-18
I0
I19
I-9
tp1498
I0
s(I64
I-14
I0
I61
I-17
tp1499
I-100000
s(I27
I10
I0
I23
I6
tp1500
I0
s(I45
I5
I0
I42
I2
tp1501
I0
s(I34
I-9
I0
I30
I-13
tp1502
I0
s(I38
I4
I0
I34
I1
tp1503
I0
s(I0
I9
I0
I64
I17
tp1504
I0
s(I42
I29
I0
I38
I26
tp1505
I0
s(I8
I-8
I0
I4
I1
tp1506
I0
s(I0
I3
I1
I64
I41
tp1507
I0
s(I0
I6
I1
I64
I-17
tp1508
I0
s(I8
I23
I0
I4
I19
tp1509
I0
s(I0
I5
I1
I64
I43
tp1510
I0
s(I23
I-44
I0
I22
I-45
tp1511
I-100000
s(I42
I16
I0
I38
I12
tp1512
I0
s(I8
I10
I0
I4
I6
tp1513
I0
s(I15
I-35
I0
I12
I-26
tp1514
I0
s(I49
I-31
I0
I48
I-33
tp1515
I-100000
s(I4
I-28
I1
I3
I-28
tp1516
I-100000
s(I4
I-11
I0
I3
I-11
tp1517
I-100000
s(I64
I-4
I1
I60
I-2
tp1518
I0
s(I38
I-1
I0
I34
I-4
tp1519
I0
s(I15
I3
I0
I12
I-1
tp1520
I0
s(I8
I9
I0
I4
I7
tp1521
I0
s(I57
I13
I1
I53
I15
tp1522
I0
s(I27
I-17
I1
I23
I-15
tp1523
I0
s(I19
I-36
I1
I15
I-35
tp1524
I0
s(I19
I-30
I1
I15
I-28
tp1525
I0
s(I4
I1
I1
I0
I3
tp1526
I0
s(I60
I7
I1
I57
I8
tp1527
I0
s(I0
I7
I0
I64
I0
tp1528
I0
s(I57
I19
I0
I53
I29
tp1529
I0
s(I8
I-5
I0
I4
I4
tp1530
I0
s(I27
I-34
I0
I23
I-37
tp1531
I0
s(I12
I-4
I1
I8
I-3
tp1532
I0
s(I45
I35
I0
I42
I32
tp1533
I0
s(I60
I35
I1
I57
I35
tp1534
I100000
s(I60
I34
I1
I57
I35
tp1535
I100000
s(I8
I-33
I0
I4
I-37
tp1536
I0
s(I30
I28
I1
I27
I30
tp1537
I0
s(I49
I29
I0
I45
I25
tp1538
I0
s(I60
I15
I0
I57
I24
tp1539
I0
s(I57
I-19
I0
I53
I-10
tp1540
I0
s(I12
I46
I0
I10
I48
tp1541
I-100000
s(I45
I-16
I0
I42
I-20
tp1542
I0
s(I8
I-4
I1
I4
I-1
tp1543
I0
s(I38
I-7
I0
I34
I-10
tp1544
I0
s(I15
I-10
I0
I13
I-13
tp1545
I-100000
s(I15
I-15
I1
I12
I-13
tp1546
I0
s(I27
I11
I0
I23
I8
tp1547
I0
s(I15
I24
I0
I12
I21
tp1548
I0
s(I53
I-33
I0
I50
I-37
tp1549
I-100000
s(I57
I38
I0
I53
I47
tp1550
I0
s(I64
I-13
I0
I62
I-8
tp1551
I-100000
s(I64
I-27
I1
I60
I-25
tp1552
I0
s(I12
I-11
I1
I8
I-10
tp1553
I0
s(I12
I-41
I0
I8
I-44
tp1554
I0
s(I38
I-31
I0
I34
I-33
tp1555
I0
s(I49
I-3
I0
I45
I-7
tp1556
I0
s(I19
I-9
I0
I15
I-12
tp1557
I0
s(I23
I-41
I1
I19
I-40
tp1558
I0
s(I23
I22
I0
I19
I19
tp1559
I0
s(I0
I4
I1
I64
I1
tp1560
I0
s(I38
I-3
I0
I34
I-6
tp1561
I0
s(I8
I-36
I0
I7
I-37
tp1562
I-100000
s(I38
I47
I1
I38
I48
tp1563
I-100000
s(I57
I22
I0
I53
I31
tp1564
I0
s(I0
I8
I0
I64
I2
tp1565
I0
s(I4
I-13
I0
I3
I-11
tp1566
I-100000
s(I4
I-4
I0
I3
I-3
tp1567
I-100000
s(I23
I43
I0
I19
I40
tp1568
I0
s(I23
I-31
I1
I19
I-30
tp1569
I0
s(I23
I-8
I1
I19
I-6
tp1570
I0
s(I57
I25
I0
I54
I32
tp1571
I-100000
s(I57
I18
I1
I53
I20
tp1572
I0
s(I23
I-29
I0
I19
I-33
tp1573
I0
s(I38
I25
I0
I34
I22
tp1574
I0
s(I0
I6
I1
I64
I1
tp1575
I0
s(I34
I-22
I0
I30
I-26
tp1576
I0
s(I0
I8
I0
I64
I-27
tp1577
I0
s(I57
I6
I0
I53
I15
tp1578
I0
s(I34
I23
I0
I30
I19
tp1579
I0
s(I0
I4
I1
I64
I-15
tp1580
I0
s(I8
I-44
I0
I8
I-45
tp1581
I-100000
s(I45
I25
I0
I42
I22
tp1582
I0
s(I8
I32
I1
I4
I34
tp1583
I0
s(I4
I-8
I0
I3
I-6
tp1584
I-100000
s(I57
I9
I0
I54
I16
tp1585
I-100000
s(I12
I-2
I1
I8
I-1
tp1586
I0
s(I60
I-21
I1
I57
I-19
tp1587
I0
s(I45
I15
I0
I43
I20
tp1588
I-100000
s(I49
I2
I0
I45
I-2
tp1589
I0
s(I15
I-9
I1
I12
I-8
tp1590
I0
s(I8
I-22
I1
I4
I-20
tp1591
I0
s(I12
I-13
I0
I8
I-16
tp1592
I0
s(I4
I-15
I1
I3
I-15
tp1593
I-100000
s(I64
I22
I0
I61
I29
tp1594
I-100000
s(I34
I7
I0
I30
I3
tp1595
I0
s(I38
I32
I0
I34
I28
tp1596
I0
s(I49
I43
I1
I45
I45
tp1597
I0
s(I15
I-1
I0
I12
I-4
tp1598
I0
s(I27
I-40
I0
I23
I-44
tp1599
I0
s(I12
I11
I0
I8
I7
tp1600
I0
s(I64
I-23
I1
I60
I-21
tp1601
I0
s(I60
I-5
I1
I57
I-3
tp1602
I0
s(I64
I-13
I1
I60
I-11
tp1603
I0
s(I64
I2
I0
I60
I-1
tp1604
I0
s(I45
I15
I1
I42
I17
tp1605
I0
s(I64
I28
I0
I60
I37
tp1606
I-100000
s(I12
I-29
I1
I8
I-27
tp1607
I0
s(I49
I43
I1
I45
I44
tp1608
I0
s(I64
I10
I0
I60
I7
tp1609
I0
s(I4
I-22
I0
I3
I-23
tp1610
I-100000
s(I8
I-24
I1
I4
I-22
tp1611
I0
s(I64
I-14
I0
I60
I-17
tp1612
I0
s(I53
I34
I1
I49
I35
tp1613
I0
s(I27
I30
I0
I23
I26
tp1614
I0
s(I38
I-9
I0
I34
I-12
tp1615
I0
s(I34
I40
I1
I30
I42
tp1616
I0
s(I53
I13
I0
I49
I9
tp1617
I0
s(I12
I-33
I1
I8
I-31
tp1618
I0
s(I49
I14
I1
I45
I15
tp1619
I0
s(I64
I8
I0
I60
I4
tp1620
I0
s(I30
I-8
I0
I27
I-11
tp1621
I0
s(I64
I-25
I0
I62
I-20
tp1622
I-100000
s(I57
I1
I0
I53
I-1
tp1623
I0
s(I15
I-20
I0
I12
I-11
tp1624
I0
s(I8
I-21
I0
I4
I-12
tp1625
I0
s(I49
I39
I1
I49
I40
tp1626
I-100000
s(I27
I-18
I0
I23
I-21
tp1627
I0
s(I15
I-32
I1
I12
I-30
tp1628
I0
s(I45
I39
I1
I42
I42
tp1629
I0
s(I27
I14
I0
I23
I10
tp1630
I0
s(I8
I-18
I0
I4
I-8
tp1631
I0
s(I27
I31
I0
I23
I27
tp1632
I0
s(I49
I21
I1
I45
I24
tp1633
I0
s(I0
I3
I1
I64
I29
tp1634
I0
s(I57
I35
I1
I53
I37
tp1635
I0
s(I23
I-3
I0
I19
I-7
tp1636
I0
s(I60
I15
I1
I57
I17
tp1637
I100000
s(I27
I-2
I0
I23
I-5
tp1638
I0
s(I23
I36
I0
I20
I44
tp1639
I-100000
s(I23
I-33
I1
I19
I-32
tp1640
I0
s(I42
I25
I0
I38
I23
tp1641
I0
s(I53
I22
I0
I49
I31
tp1642
I0
s(I34
I-2
I0
I30
I-6
tp1643
I0
s(I15
I43
I0
I12
I52
tp1644
I-100000
s(I45
I30
I0
I42
I39
tp1645
I0
s(I23
I-15
I0
I19
I-18
tp1646
I0
s(I8
I-36
I1
I4
I-34
tp1647
I0
s(I8
I-5
I1
I4
I-2
tp1648
I0
s(I23
I-17
I1
I19
I-16
tp1649
I0
s(I0
I4
I1
I64
I10
tp1650
I0
s(I19
I-24
I1
I19
I-25
tp1651
I-100000
s(I34
I12
I0
I30
I8
tp1652
I0
s(I8
I4
I0
I4
I2
tp1653
I0
s(I30
I37
I1
I27
I39
tp1654
I0
s(I8
I-12
I1
I4
I-9
tp1655
I0
s(I30
I1
I0
I27
I-3
tp1656
I0
s(I8
I-27
I1
I4
I-25
tp1657
I0
s(I19
I36
I1
I15
I38
tp1658
I0
s(I30
I-18
I0
I27
I-21
tp1659
I0
s(I57
I-16
I0
I53
I-6
tp1660
I0
s(I34
I-26
I0
I30
I-29
tp1661
I0
s(I0
I5
I1
I64
I-6
tp1662
I0
s(I38
I-27
I0
I34
I-31
tp1663
I0
s(I60
I26
I1
I57
I27
tp1664
I100000
s(I57
I-20
I0
I53
I-24
tp1665
I0
s(I60
I9
I0
I58
I13
tp1666
I-100000
s(I12
I20
I0
I8
I17
tp1667
I0
s(I8
I-13
I0
I4
I-15
tp1668
I0
s(I30
I38
I0
I27
I35
tp1669
I0
s(I15
I32
I0
I12
I28
tp1670
I0
s(I45
I19
I0
I42
I15
tp1671
I0
s(I0
I2
I1
I64
I36
tp1672
I0
s(I0
I8
I0
I64
I10
tp1673
I0
s(I30
I29
I0
I27
I38
tp1674
I0
s(I19
I39
I0
I15
I36
tp1675
I0
s(I38
I12
I0
I34
I9
tp1676
I0
s(I57
I-4
I0
I53
I-8
tp1677
I0
s(I15
I-28
I0
I12
I-19
tp1678
I0
s(I4
I-12
I0
I3
I-10
tp1679
I-100000
s(I38
I-4
I0
I34
I-8
tp1680
I0
s(I23
I-10
I0
I19
I-1
tp1681
I0
s(I30
I14
I0
I27
I10
tp1682
I0
s(I4
I-15
I0
I3
I-16
tp1683
I-100000
s(I27
I17
I0
I23
I13
tp1684
I0
s(I64
I6
I1
I60
I7
tp1685
I0
s(I38
I18
I1
I34
I20
tp1686
I0
s(I8
I0
I1
I4
I3
tp1687
I0
s(I0
I3
I1
I64
I-23
tp1688
I0
s(I0
I0
I0
I-1
I-1
tp1689
I-100000
s(I42
I16
I0
I38
I26
tp1690
I0
s(I42
I18
I0
I38
I14
tp1691
I0
s(I8
I-23
I1
I4
I-20
tp1692
I0
s(I38
I37
I0
I34
I34
tp1693
I0
s(I19
I-8
I1
I15
I-7
tp1694
I0
s(I27
I-33
I0
I23
I-36
tp1695
I0
s(I38
I-4
I0
I34
I-7
tp1696
I0
s(I34
I39
I0
I30
I35
tp1697
I0
s(I38
I-12
I0
I34
I-15
tp1698
I0
s(I0
I0
I0
I64
I22
tp1699
I0
s(I64
I21
I1
I60
I23
tp1700
I0
s(I12
I-30
I1
I8
I-28
tp1701
I0
s(I49
I42
I0
I46
I49
tp1702
I-100000
s(I57
I1
I0
I53
I10
tp1703
I0
s(I64
I-8
I0
I60
I-11
tp1704
I0
s(I60
I-7
I1
I57
I-5
tp1705
I0
s(I12
I46
I0
I9
I52
tp1706
I-100000
s(I30
I18
I0
I27
I14
tp1707
I0
s(I42
I8
I0
I38
I4
tp1708
I0
s(I45
I23
I1
I42
I26
tp1709
I0
s(I60
I1
I1
I57
I3
tp1710
I0
s(I34
I28
I0
I30
I38
tp1711
I0
s(I64
I5
I1
I60
I7
tp1712
I0
s(I8
I48
I0
I6
I52
tp1713
I-100000
s(I30
I34
I0
I27
I30
tp1714
I0
s(I60
I-7
I0
I59
I-4
tp1715
I-100000
s(I8
I36
I1
I4
I37
tp1716
I0
s(I0
I6
I1
I64
I20
tp1717
I0
s(I38
I-10
I0
I34
I-14
tp1718
I0
s(I12
I-20
I0
I8
I-10
tp1719
I0
s(I60
I-16
I0
I57
I-20
tp1720
I0
s(I53
I33
I0
I49
I43
tp1721
I0
s(I34
I34
I1
I30
I37
tp1722
I0
s(I64
I-15
I1
I60
I-13
tp1723
I0
s(I4
I-1
I0
I3
I-2
tp1724
I-100000
s(I45
I24
I0
I42
I20
tp1725
I0
s(I45
I39
I0
I42
I36
tp1726
I0
s(I12
I-31
I1
I8
I-29
tp1727
I0
s(I64
I20
I1
I60
I22
tp1728
I0
s(I4
I29
I0
I3
I28
tp1729
I-100000
s(I30
I22
I0
I29
I24
tp1730
I-100000
s(I53
I-16
I0
I49
I-20
tp1731
I0
s(I45
I43
I1
I42
I45
tp1732
I0
s(I8
I-29
I0
I4
I-19
tp1733
I0
s(I57
I26
I1
I53
I28
tp1734
I0
s(I23
I-35
I0
I19
I-39
tp1735
I0
s(I60
I-20
I0
I58
I-15
tp1736
I-100000
s(I27
I-9
I0
I23
I-13
tp1737
I0
s(I57
I18
I0
I53
I14
tp1738
I0
s(I64
I9
I0
I60
I5
tp1739
I0
s(I45
I28
I1
I42
I29
tp1740
I0
s(I0
I9
I0
I64
I9
tp1741
I0
s(I38
I49
I0
I36
I52
tp1742
I-100000
s(I19
I1
I0
I15
I-3
tp1743
I0
s(I4
I2
I1
I0
I4
tp1744
I0
s(I49
I-5
I0
I45
I-8
tp1745
I0
s(I0
I6
I1
I64
I-9
tp1746
I0
s(I12
I21
I0
I8
I17
tp1747
I0
s(I0
I5
I1
I64
I19
tp1748
I0
s(I49
I39
I0
I49
I40
tp1749
I-100000
s(I64
I-10
I1
I60
I-9
tp1750
I0
s(I42
I41
I0
I38
I37
tp1751
I0
s(I53
I-12
I0
I49
I-16
tp1752
I0
s(I64
I17
I1
I60
I19
tp1753
I0
s(I30
I37
I0
I27
I44
tp1754
I-100000
s(I53
I7
I0
I49
I4
tp1755
I0
s(I49
I23
I1
I45
I24
tp1756
I0
s(I27
I-20
I0
I23
I-23
tp1757
I0
s(I64
I-9
I1
I60
I-8
tp1758
I0
s(I4
I-1
I0
I0
I9
tp1759
I0
s(I60
I39
I1
I57
I40
tp1760
I100000
s(I8
I-30
I1
I4
I-29
tp1761
I0
s(I12
I-16
I1
I8
I-14
tp1762
I0
s(I60
I31
I0
I58
I37
tp1763
I-100000
s(I45
I23
I0
I42
I19
tp1764
I0
s(I57
I17
I1
I53
I20
tp1765
I0
s(I0
I2
I1
I64
I-32
tp1766
I0
s(I0
I7
I0
I64
I8
tp1767
I0
s(I15
I-30
I1
I12
I-29
tp1768
I0
s(I34
I28
I0
I30
I24
tp1769
I0
s(I30
I-16
I0
I27
I-20
tp1770
I0
s(I42
I26
I1
I38
I27
tp1771
I0
s(I45
I43
I0
I45
I44
tp1772
I-100000
s(I15
I1
I0
I12
I-3
tp1773
I0
s(I8
I-3
I1
I4
I-1
tp1774
I0
s(I34
I26
I1
I30
I28
tp1775
I0
s(I27
I47
I1
I23
I49
tp1776
I0
s(I34
I36
I0
I32
I40
tp1777
I-100000
s(I12
I-7
I1
I8
I-5
tp1778
I0
s(I64
I14
I0
I61
I11
tp1779
I-100000
s(I15
I-1
I1
I12
I1
tp1780
I0
s(I8
I-3
I1
I4
I0
tp1781
I0
s(I49
I42
I1
I45
I44
tp1782
I0
s(I60
I14
I0
I57
I21
tp1783
I-100000
s(I8
I-9
I1
I4
I-8
tp1784
I0
s(I49
I43
I1
I49
I44
tp1785
I-100000
s(I53
I-10
I0
I49
I-12
tp1786
I0
s(I49
I-33
I0
I45
I-37
tp1787
I0
s(I0
I10
I0
I64
I4
tp1788
I0
s(I45
I46
I1
I42
I48
tp1789
I0
s(I38
I4
I0
I34
I0
tp1790
I0
s(I49
I-17
I0
I45
I-21
tp1791
I0
s(I0
I7
I0
I64
I-12
tp1792
I0
s(I0
I2
I1
I64
I24
tp1793
I0
s(I38
I29
I0
I34
I25
tp1794
I0
s(I64
I24
I0
I64
I25
tp1795
I-100000
s(I53
I49
I1
I49
I52
tp1796
I-100000
s(I57
I7
I0
I53
I16
tp1797
I0
s(I8
I-1
I1
I4
I0
tp1798
I0
s(I53
I-6
I0
I49
I-8
tp1799
I0
s(I23
I40
I0
I21
I44
tp1800
I-100000
s(I34
I26
I0
I32
I32
tp1801
I-100000
s(I45
I19
I1
I45
I20
tp1802
I-100000
s(I0
I2
I1
I64
I0
tp1803
I0
s(I49
I3
I0
I45
I0
tp1804
I0
s(I64
I0
I1
I60
I1
tp1805
I0
s(I45
I-32
I0
I42
I-35
tp1806
I0
s(I19
I-2
I0
I15
I-4
tp1807
I0
s(I38
I19
I0
I34
I15
tp1808
I0
s(I0
I5
I1
I64
I-17
tp1809
I0
s(I45
I20
I0
I42
I16
tp1810
I0
s(I0
I6
I1
I64
I9
tp1811
I0
s(I4
I-3
I1
I3
I-2
tp1812
I-100000
s(I23
I16
I0
I19
I13
tp1813
I0
s(I23
I-28
I1
I19
I-27
tp1814
I0
s(I23
I-23
I0
I19
I-27
tp1815
I0
s(I38
I43
I0
I34
I39
tp1816
I0
s(I42
I-12
I0
I38
I-15
tp1817
I0
s(I38
I39
I1
I38
I40
tp1818
I-100000
s(I45
I19
I0
I42
I16
tp1819
I0
s(I57
I43
I0
I53
I41
tp1820
I0
s(I53
I15
I0
I51
I20
tp1821
I-100000
s(I42
I-19
I0
I38
I-23
tp1822
I0
s(I38
I17
I0
I34
I14
tp1823
I0
s(I42
I24
I1
I38
I25
tp1824
I0
s(I19
I-18
I1
I15
I-16
tp1825
I0
s(I57
I-12
I0
I53
I-2
tp1826
I0
s(I19
I-3
I0
I15
I-6
tp1827
I0
s(I45
I51
I1
I45
I52
tp1828
I-100000
s(I60
I20
I0
I60
I21
tp1829
I-100000
s(I45
I35
I1
I42
I37
tp1830
I0
s(I27
I-21
I0
I23
I-25
tp1831
I0
s(I19
I-18
I0
I15
I-22
tp1832
I0
s(I45
I29
I0
I42
I25
tp1833
I0
s(I8
I7
I0
I4
I3
tp1834
I0
s(I23
I-21
I0
I19
I-25
tp1835
I0
s(I60
I3
I1
I57
I5
tp1836
I0
s(I60
I29
I1
I57
I30
tp1837
I100000
s(I64
I7
I1
I60
I9
tp1838
I0
s(I49
I21
I1
I45
I23
tp1839
I0
s(I30
I28
I0
I27
I37
tp1840
I0
s(I34
I32
I1
I30
I34
tp1841
I0
s(I64
I-2
I0
I60
I-6
tp1842
I0
s(I34
I-24
I0
I30
I-28
tp1843
I0
s(I38
I31
I0
I38
I32
tp1844
I-100000
s(I38
I-1
I0
I34
I-5
tp1845
I0
s(I45
I0
I0
I42
I-4
tp1846
I0
s(I30
I-25
I0
I27
I-28
tp1847
I0
s(I23
I-5
I0
I19
I-9
tp1848
I0
s(I60
I11
I0
I57
I19
tp1849
I100000
s(I49
I-9
I0
I45
I-13
tp1850
I0
s(I57
I5
I0
I53
I15
tp1851
I0
s(I19
I-36
I1
I15
I-34
tp1852
I0
s(I15
I20
I0
I12
I17
tp1853
I0
s(I53
I25
I1
I49
I27
tp1854
I0
s(I42
I32
I0
I39
I36
tp1855
I-100000
s(I0
I7
I0
I64
I5
tp1856
I0
s(I34
I-8
I0
I30
I-12
tp1857
I0
s(I27
I3
I0
I23
I-1
tp1858
I0
s(I27
I12
I0
I23
I8
tp1859
I0
s(I4
I3
I1
I0
I5
tp1860
I0
s(I60
I35
I1
I57
I36
tp1861
I0
s(I34
I30
I1
I30
I31
tp1862
I0
s(I57
I5
I0
I53
I14
tp1863
I0
s(I0
I-1
I0
I0
I-1
tp1864
I-100000
s(I64
I34
I1
I60
I35
tp1865
I0
s(I0
I3
I1
I64
I21
tp1866
I0
s(I4
I1
I1
I0
I4
tp1867
I0
s(I53
I35
I0
I53
I36
tp1868
I-100000
s(I27
I29
I0
I23
I25
tp1869
I0
s(I49
I5
I0
I45
I1
tp1870
I0
s(I8
I-32
I1
I4
I-29
tp1871
I0
s(I42
I20
I0
I38
I16
tp1872
I0
s(I38
I26
I1
I34
I29
tp1873
I0
s(I19
I-29
I0
I15
I-33
tp1874
I0
s(I49
I11
I0
I45
I8
tp1875
I0
s(I53
I-5
I0
I49
I-7
tp1876
I0
s(I4
I-20
I1
I3
I-19
tp1877
I-100000
s(I53
I26
I0
I49
I24
tp1878
I0
s(I64
I-3
I1
I60
I-1
tp1879
I0
s(I53
I31
I0
I49
I41
tp1880
I0
s(I57
I-4
I0
I53
I6
tp1881
I0
s(I49
I23
I1
I49
I24
tp1882
I-100000
s(I57
I11
I1
I53
I13
tp1883
I0
s(I45
I31
I0
I42
I29
tp1884
I0
s(I45
I31
I1
I42
I34
tp1885
I0
s(I8
I-24
I0
I4
I-15
tp1886
I0
s(I8
I-17
I1
I4
I-14
tp1887
I0
s(I30
I38
I0
I27
I48
tp1888
I0
s(I23
I-7
I0
I19
I-10
tp1889
I0
s(I42
I10
I0
I38
I6
tp1890
I0
s(I0
I4
I1
I64
I2
tp1891
I0
s(I8
I-15
I1
I4
I-12
tp1892
I0
s(I53
I10
I0
I49
I8
tp1893
I0
s(I49
I25
I1
I45
I27
tp1894
I0
s(I27
I-32
I0
I23
I-36
tp1895
I0
s(I8
I7
I0
I4
I4
tp1896
I0
s(I27
I-37
I0
I23
I-41
tp1897
I0
s(I60
I5
I1
I57
I6
tp1898
I100000
s(I27
I47
I0
I26
I48
tp1899
I-100000
s(I27
I-14
I1
I23
I-12
tp1900
I0
s(I57
I27
I0
I54
I32
tp1901
I-100000
s(I15
I9
I0
I12
I5
tp1902
I0
s(I45
I20
I1
I42
I22
tp1903
I0
s(I53
I42
I1
I49
I44
tp1904
I0
s(I64
I-14
I1
I60
I-12
tp1905
I0
s(I38
I-8
I0
I34
I-11
tp1906
I0
s(I64
I-30
I0
I62
I-24
tp1907
I-100000
s(I64
I-2
I1
I60
I-1
tp1908
I0
s(I38
I-19
I0
I34
I-23
tp1909
I0
s(I15
I-19
I0
I12
I-10
tp1910
I0
s(I23
I4
I0
I19
I1
tp1911
I0
s(I34
I23
I0
I30
I20
tp1912
I0
s(I0
I4
I1
I64
I-14
tp1913
I0
s(I19
I-28
I1
I19
I-29
tp1914
I-100000
s(I53
I41
I0
I49
I50
tp1915
I0
s(I12
I-5
I0
I8
I4
tp1916
I0
s(I4
I34
I1
I3
I34
tp1917
I-100000
s(I30
I28
I0
I27
I26
tp1918
I0
s(I23
I5
I0
I19
I1
tp1919
I0
s(I27
I-25
I0
I23
I-27
tp1920
I0
s(I60
I-1
I0
I57
I-4
tp1921
I0
s(I12
I-7
I0
I8
I-9
tp1922
I0
s(I42
I1
I0
I38
I-3
tp1923
I0
s(I23
I26
I0
I19
I36
tp1924
I0
s(I38
I34
I0
I35
I40
tp1925
I-100000
s(I4
I-5
I0
I3
I-6
tp1926
I-100000
s(I0
I3
I1
I64
I-31
tp1927
I0
s(I34
I35
I0
I34
I36
tp1928
I-100000
s(I38
I5
I0
I34
I3
tp1929
I0
s(I64
I22
I1
I60
I23
tp1930
I0
s(I4
I-30
I1
I3
I-29
tp1931
I-100000
s(I4
I-22
I0
I3
I-22
tp1932
I-100000
s(I23
I1
I0
I19
I-3
tp1933
I0
s(I23
I-16
I0
I19
I-7
tp1934
I0
s(I8
I-20
I1
I4
I-17
tp1935
I0
s(I27
I-29
I1
I23
I-28
tp1936
I0
s(I38
I34
I1
I34
I37
tp1937
I0
s(I0
I2
I1
I64
I11
tp1938
I0
s(I23
I-13
I1
I19
I-11
tp1939
I0
s(I60
I33
I1
I57
I35
tp1940
I0
s(I53
I17
I0
I51
I20
tp1941
I-100000
s(I12
I-27
I0
I8
I-30
tp1942
I0
s(I53
I17
I0
I49
I27
tp1943
I0
s(I12
I-25
I1
I8
I-23
tp1944
I0
s(I60
I13
I1
I57
I15
tp1945
I0
s(I15
I-18
I1
I12
I-15
tp1946
I0
s(I15
I-32
I1
I12
I-31
tp1947
I0
s(I49
I33
I0
I48
I36
tp1948
I-100000
s(I53
I31
I0
I49
I28
tp1949
I0
s(I60
I-23
I1
I57
I-21
tp1950
I0
s(I15
I37
I1
I12
I39
tp1951
I0
s(I53
I-2
I0
I49
I-4
tp1952
I0
s(I42
I30
I0
I38
I39
tp1953
I0
s(I34
I41
I1
I30
I42
tp1954
I0
s(I27
I31
I0
I23
I28
tp1955
I0
s(I45
I43
I0
I43
I48
tp1956
I-100000
s(I8
I28
I0
I4
I25
tp1957
I0
s(I15
I-30
I0
I13
I-33
tp1958
I-100000
s(I64
I11
I0
I60
I20
tp1959
I0
s(I19
I-10
I0
I15
I-1
tp1960
I0
s(I0
I6
I1
I64
I28
tp1961
I0
s(I42
I-6
I0
I38
I-10
tp1962
I0
s(I23
I18
I0
I19
I14
tp1963
I0
s(I60
I-26
I1
I57
I-24
tp1964
I100000
s(I8
I-14
I0
I4
I-16
tp1965
I0
s(I57
I6
I0
I53
I16
tp1966
I0
s(I27
I9
I0
I23
I5
tp1967
I0
s(I60
I-29
I1
I57
I-28
tp1968
I100000
s(I60
I26
I0
I57
I35
tp1969
I0
s(I53
I22
I0
I49
I18
tp1970
I0
s(I27
I15
I0
I23
I12
tp1971
I0
s(I30
I-19
I0
I27
I-23
tp1972
I0
s(I19
I-23
I1
I15
I-21
tp1973
I0
s(I23
I44
I1
I19
I46
tp1974
I0
s(I12
I-30
I0
I8
I-32
tp1975
I0
s(I27
I6
I0
I23
I3
tp1976
I0
s(I0
I1
I1
I64
I-22
tp1977
I0
s(I30
I-28
I0
I27
I-31
tp1978
I0
s(I0
I9
I0
I64
I1
tp1979
I0
s(I27
I-8
I0
I23
I-12
tp1980
I0
s(I15
I-38
I0
I13
I-41
tp1981
I-100000
s(I0
I5
I1
I64
I27
tp1982
I0
s(I64
I24
I1
I60
I26
tp1983
I0
s(I57
I25
I0
I53
I23
tp1984
I0
s(I64
I33
I0
I61
I40
tp1985
I-100000
s(I12
I-28
I1
I8
I-26
tp1986
I0
s(I53
I6
I0
I49
I3
tp1987
I0
s(I34
I-35
I1
I30
I-34
tp1988
I0
s(I19
I-1
I0
I15
I-3
tp1989
I0
s(I64
I41
I1
I60
I43
tp1990
I0
s(I15
I-29
I1
I12
I-28
tp1991
I0
s(I30
I-4
I0
I27
I-8
tp1992
I0
s(I42
I-10
I0
I38
I-14
tp1993
I0
s(I27
I-5
I0
I23
I-9
tp1994
I0
s(I49
I23
I0
I45
I20
tp1995
I0
s(I57
I9
I0
I53
I7
tp1996
I0
s(I34
I-31
I0
I32
I-33
tp1997
I-100000
s(I19
I-15
I0
I15
I-18
tp1998
I0
s(I0
I8
I0
I64
I-6
tp1999
I0
s(I34
I-19
I1
I30
I-18
tp2000
I0
s(I57
I15
I0
I54
I20
tp2001
I-100000
s(I42
I2
I0
I38
I-2
tp2002
I0
s(I12
I2
I0
I8
I11
tp2003
I0
s(I42
I-18
I0
I38
I-22
tp2004
I0
s(I45
I-5
I0
I42
I-9
tp2005
I-100000
s(I23
I-36
I1
I19
I-35
tp2006
I0
s(I8
I-8
I0
I4
I2
tp2007
I0
s(I49
I39
I0
I45
I35
tp2008
I0
s(I19
I23
I0
I15
I19
tp2009
I0
s(I27
I-30
I1
I23
I-28
tp2010
I0
s(I19
I-12
I0
I15
I-3
tp2011
I0
s(I23
I-27
I0
I19
I-31
tp2012
I0
s(I38
I39
I1
I34
I40
tp2013
I0
s(I30
I22
I0
I27
I19
tp2014
I0
s(I42
I48
I1
I38
I49
tp2015
I0
s(I8
I-23
I1
I4
I-21
tp2016
I0
s(I53
I39
I1
I49
I41
tp2017
I0
s(I49
I14
I0
I45
I10
tp2018
I0
s(I53
I-9
I0
I49
I-13
tp2019
I0
s(I23
I3
I0
I19
I0
tp2020
I0
s(I49
I27
I0
I45
I37
tp2021
I0
s(I4
I-16
I0
I3
I-16
tp2022
I-100000
s(I23
I-12
I1
I19
I-11
tp2023
I0
s(I45
I-7
I0
I42
I-11
tp2024
I0
s(I34
I5
I0
I30
I1
tp2025
I0
s(I8
I-5
I0
I4
I-8
tp2026
I0
s(I45
I39
I1
I42
I41
tp2027
I0
s(I60
I20
I1
I57
I21
tp2028
I100000
s(I4
I-21
I1
I3
I-21
tp2029
I-100000
s(I0
I2
I1
I64
I16
tp2030
I0
s(I42
I-1
I0
I38
I-4
tp2031
I0
s(I30
I-22
I0
I27
I-26
tp2032
I0
s(I12
I-16
I1
I8
I-15
tp2033
I0
s(I64
I13
I1
I60
I14
tp2034
I0
s(I38
I24
I1
I34
I26
tp2035
I0
s(I49
I20
I0
I45
I18
tp2036
I0
s(I49
I23
I0
I45
I19
tp2037
I0
s(I42
I25
I0
I38
I21
tp2038
I0
s(I49
I35
I0
I45
I32
tp2039
I0
s(I4
I-24
I1
I3
I-23
tp2040
I-100000
s(I15
I3
I0
I12
I0
tp2041
I0
s(I45
I28
I0
I42
I36
tp2042
I-100000
s(I0
I6
I0
I64
I10
tp2043
I0
s(I38
I27
I0
I34
I24
tp2044
I0
s(I15
I6
I0
I12
I3
tp2045
I0
s(I0
I5
I1
I64
I-1
tp2046
I0
s(I27
I5
I0
I23
I1
tp2047
I0
s(I60
I-11
I0
I59
I-13
tp2048
I-100000
s(I27
I27
I0
I23
I23
tp2049
I0
s(I12
I-37
I1
I8
I-35
tp2050
I0
s(I34
I-12
I0
I30
I-16
tp2051
I0
s(I38
I45
I0
I34
I41
tp2052
I0
s(I34
I28
I0
I32
I32
tp2053
I-100000
s(I60
I37
I0
I59
I40
tp2054
I-100000
s(I15
I-15
I0
I12
I-19
tp2055
I0
s(I53
I11
I0
I51
I16
tp2056
I-100000
s(I60
I24
I0
I58
I28
tp2057
I-100000
s(I38
I8
I0
I34
I4
tp2058
I0
s(I49
I27
I0
I45
I23
tp2059
I0
s(I42
I17
I0
I38
I27
tp2060
I0
s(I42
I19
I0
I38
I15
tp2061
I0
s(I34
I20
I1
I30
I21
tp2062
I0
s(I27
I-9
I0
I23
I-12
tp2063
I0
s(I60
I-24
I0
I57
I-28
tp2064
I0
s(I38
I8
I0
I34
I5
tp2065
I0
s(I27
I-5
I0
I23
I5
tp2066
I0
s(I60
I-25
I1
I57
I-24
tp2067
I100000
s(I45
I39
I0
I45
I40
tp2068
I-100000
s(I60
I22
I1
I57
I24
tp2069
I0
s(I49
I9
I0
I45
I5
tp2070
I0
s(I30
I-37
I0
I27
I-40
tp2071
I0
s(I45
I9
I0
I42
I5
tp2072
I0
s(I45
I47
I1
I43
I48
tp2073
I-100000
s(I60
I-3
I1
I57
I-1
tp2074
I0
s(I42
I31
I1
I38
I34
tp2075
I0
s(I57
I-14
I0
I53
I-17
tp2076
I0
s(I15
I-25
I1
I12
I-23
tp2077
I0
s(I23
I-41
I0
I19
I-44
tp2078
I0
s(I60
I6
I0
I57
I15
tp2079
I0
s(I57
I35
I0
I53
I33
tp2080
I0
s(I15
I43
I1
I12
I44
tp2081
I0
s(I15
I40
I0
I13
I44
tp2082
I-100000
s(I12
I-3
I1
I8
I-2
tp2083
I0
s(I0
I7
I0
I64
I13
tp2084
I0
s(I60
I43
I0
I58
I49
tp2085
I-100000
s(I53
I17
I0
I49
I14
tp2086
I0
s(I38
I32
I0
I35
I40
tp2087
I-100000
s(I30
I49
I0
I27
I47
tp2088
I0
s(I12
I-2
I0
I8
I-6
tp2089
I0
s(I42
I-20
I0
I38
I-23
tp2090
I0
s(I4
I-3
I0
I0
I7
tp2091
I0
s(I60
I-10
I0
I57
I-3
tp2092
I-100000
s(I12
I39
I1
I8
I41
tp2093
I0
s(I53
I42
I0
I49
I51
tp2094
I0
s(I30
I-11
I0
I27
I-15
tp2095
I0
s(I64
I-27
I1
I60
I-26
tp2096
I0
s(I15
I-23
I1
I12
I-21
tp2097
I0
s(I49
I10
I0
I45
I7
tp2098
I0
s(I15
I-33
I1
I12
I-31
tp2099
I0
s(I23
I34
I0
I20
I40
tp2100
I-100000
s(I64
I-8
I0
I61
I0
tp2101
I-100000
s(I34
I36
I0
I30
I32
tp2102
I0
s(I42
I30
I1
I38
I32
tp2103
I0
s(I42
I17
I1
I38
I18
tp2104
I0
s(I49
I-12
I0
I45
I-16
tp2105
I0
s(I38
I38
I0
I35
I44
tp2106
I-100000
s(I8
I-26
I1
I4
I-25
tp2107
I0
s(I45
I-12
I0
I42
I-16
tp2108
I0
s(I0
I7
I0
I64
I36
tp2109
I0
s(I0
I4
I1
I64
I26
tp2110
I0
s(I42
I2
I0
I38
I-1
tp2111
I0
s(I53
I34
I1
I49
I36
tp2112
I0
s(I27
I-15
I0
I23
I-19
tp2113
I0
s(I45
I15
I0
I42
I24
tp2114
I0
s(I4
I-14
I0
I3
I-14
tp2115
I-100000
s(I60
I22
I0
I57
I29
tp2116
I-100000
s(I45
I37
I0
I42
I47
tp2117
I0
s(I45
I40
I0
I42
I49
tp2118
I0
s(I23
I42
I0
I19
I39
tp2119
I0
s(I45
I-24
I0
I42
I-28
tp2120
I0
s(I27
I35
I0
I23
I32
tp2121
I0
s(I60
I16
I1
I57
I18
tp2122
I0
s(I19
I19
I0
I15
I15
tp2123
I0
s(I30
I6
I0
I27
I3
tp2124
I0
s(I57
I-17
I0
I53
I-8
tp2125
I0
s(I0
I5
I1
I64
I-22
tp2126
I0
s(I4
I-30
I0
I3
I-28
tp2127
I-100000
s(I4
I11
I0
I0
I9
tp2128
I0
s(I49
I19
I0
I45
I15
tp2129
I0
s(I57
I24
I0
I53
I33
tp2130
I0
s(I60
I-17
I0
I57
I-20
tp2131
I0
s(I53
I28
I1
I49
I30
tp2132
I0
s(I53
I33
I0
I49
I29
tp2133
I0
s(I38
I-5
I0
I34
I-9
tp2134
I0
s(I23
I-32
I0
I19
I-36
tp2135
I0
s(I12
I-14
I0
I8
I-4
tp2136
I0
s(I8
I-6
I1
I4
I-5
tp2137
I0
s(I34
I44
I1
I30
I46
tp2138
I0
s(I49
I40
I0
I45
I38
tp2139
I0
s(I19
I-17
I0
I15
I-8
tp2140
I0
s(I53
I3
I0
I49
I-1
tp2141
I0
s(I15
I-32
I0
I12
I-36
tp2142
I0
s(I8
I-40
I1
I4
I-38
tp2143
I0
s(I42
I-6
I0
I38
I-9
tp2144
I0
s(I4
I-17
I1
I3
I-15
tp2145
I-100000
s(I19
I-28
I0
I15
I-32
tp2146
I0
s(I64
I8
I1
I60
I10
tp2147
I0
s(I15
I-3
I1
I12
I0
tp2148
I0
s(I64
I-2
I0
I61
I-5
tp2149
I-100000
s(I45
I-18
I0
I42
I-22
tp2150
I0
s(I19
I3
I0
I15
I-1
tp2151
I0
s(I30
I-26
I0
I27
I-30
tp2152
I0
s(I12
I-5
I1
I8
I-4
tp2153
I0
s(I15
I-16
I0
I12
I-7
tp2154
I0
s(I42
I45
I1
I38
I48
tp2155
I-100000
s(I23
I46
I0
I22
I48
tp2156
I-100000
s(I45
I21
I0
I42
I18
tp2157
I0
s(I60
I-13
I0
I57
I-16
tp2158
I0
s(I12
I4
I0
I8
I0
tp2159
I0
s(I0
I6
I0
I64
I-2
tp2160
I0
s(I23
I40
I1
I19
I42
tp2161
I0
s(I42
I-13
I0
I38
I-17
tp2162
I0
s(I42
I45
I0
I38
I42
tp2163
I0
s(I8
I-16
I0
I4
I-20
tp2164
I0
s(I45
I-9
I1
I42
I-8
tp2165
I0
s(I60
I6
I1
I57
I8
tp2166
I100000
s(I38
I1
I0
I34
I-3
tp2167
I0
s(I38
I41
I0
I34
I39
tp2168
I0
s(I60
I-20
I0
I57
I-24
tp2169
I0
s(I12
I-24
I1
I8
I-22
tp2170
I0
s(I19
I-11
I0
I15
I-1
tp2171
I0
s(I0
I2
I1
I64
I3
tp2172
I0
s(I45
I4
I0
I42
I1
tp2173
I0
s(I12
I-10
I1
I8
I-8
tp2174
I0
s(I30
I-5
I0
I27
I-8
tp2175
I0
s(I45
I31
I1
I42
I32
tp2176
I0
s(I64
I30
I0
I61
I37
tp2177
I-100000
s(I23
I-26
I0
I19
I-29
tp2178
I0
s(I19
I6
I0
I15
I2
tp2179
I0
s(I8
I-27
I0
I4
I-18
tp2180
I0
s(I34
I-15
I1
I30
I-14
tp2181
I0
s(I19
I-14
I1
I15
I-12
tp2182
I0
s(I45
I-11
I0
I42
I-14
tp2183
I0
s(I38
I51
I0
I38
I52
tp2184
I-100000
s(I45
I47
I0
I45
I48
tp2185
I-100000
s(I64
I4
I0
I60
I13
tp2186
I-100000
s(I4
I-19
I1
I3
I-20
tp2187
I-100000
s(I45
I51
I0
I45
I52
tp2188
I-100000
s(I38
I-15
I0
I34
I-17
tp2189
I0
s(I0
I5
I0
I-3
I13
tp2190
I-100000
s(I0
I6
I1
I64
I36
tp2191
I0
s(I57
I18
I0
I53
I16
tp2192
I0
s(I42
I38
I0
I38
I35
tp2193
I0
s(I49
I21
I0
I45
I17
tp2194
I0
s(I60
I13
I0
I59
I16
tp2195
I-100000
s(I53
I26
I0
I49
I23
tp2196
I0
s(I12
I-8
I0
I8
I-12
tp2197
I0
s(I60
I-16
I1
I57
I-14
tp2198
I0
s(I49
I37
I0
I45
I46
tp2199
I0
s(I49
I37
I0
I48
I40
tp2200
I-100000
s(I42
I21
I0
I38
I17
tp2201
I0
s(I42
I17
I0
I38
I14
tp2202
I0
s(I19
I-7
I0
I15
I-11
tp2203
I0
s(I15
I-34
I1
I12
I-33
tp2204
I0
s(I57
I15
I1
I53
I17
tp2205
I0
s(I4
I-13
I1
I3
I-13
tp2206
I-100000
s(I8
I-15
I1
I4
I-13
tp2207
I0
s(I38
I-3
I0
I34
I-7
tp2208
I0
s(I57
I2
I0
I53
I-1
tp2209
I0
s(I15
I-24
I0
I12
I-15
tp2210
I0
s(I64
I36
I0
I60
I45
tp2211
I-100000
s(I12
I-27
I1
I8
I-26
tp2212
I0
s(I34
I-7
I0
I32
I-9
tp2213
I-100000
s(I0
I5
I1
I64
I3
tp2214
I0
s(I8
I10
I0
I4
I8
tp2215
I0
s(I53
I11
I1
I49
I13
tp2216
I0
s(I45
I20
I1
I42
I21
tp2217
I0
s(I53
I28
I0
I49
I37
tp2218
I0
s(I19
I-28
I1
I15
I-27
tp2219
I0
s(I12
I-15
I1
I8
I-14
tp2220
I0
s(I38
I-28
I0
I34
I-31
tp2221
I0
s(I0
I9
I0
I64
I-7
tp2222
I0
s(I4
I6
I0
I0
I2
tp2223
I0
s(I42
I38
I0
I38
I47
tp2224
I0
s(I30
I46
I0
I27
I44
tp2225
I0
s(I27
I38
I1
I23
I41
tp2226
I0
s(I42
I-14
I0
I38
I-17
tp2227
I0
s(I49
I29
I1
I45
I30
tp2228
I0
s(I60
I41
I0
I59
I44
tp2229
I-100000
s(I0
I8
I0
I64
I5
tp2230
I0
s(I0
I1
I1
I64
I30
tp2231
I0
s(I45
I20
I0
I43
I24
tp2232
I-100000
s(I0
I7
I0
I64
I24
tp2233
I0
s(I15
I-24
I1
I12
I-22
tp2234
I0
s(I34
I39
I0
I30
I36
tp2235
I0
s(I30
I36
I1
I27
I37
tp2236
I0
s(I34
I15
I0
I30
I11
tp2237
I0
s(I53
I23
I1
I49
I25
tp2238
I0
s(I53
I43
I1
I53
I44
tp2239
I-100000
s(I12
I-40
I0
I11
I-41
tp2240
I-100000
s(I15
I-18
I0
I13
I-21
tp2241
I-100000
s(I4
I-24
I0
I3
I-22
tp2242
I-100000
s(I45
I-3
I0
I42
I-6
tp2243
I0
s(I38
I47
I0
I34
I43
tp2244
I0
s(I64
I11
I1
I60
I13
tp2245
I0
s(I38
I35
I1
I38
I36
tp2246
I-100000
s(I4
I28
I0
I3
I27
tp2247
I-100000
s(I8
I-8
I1
I4
I-5
tp2248
I0
s(I19
I44
I0
I15
I40
tp2249
I0
s(I57
I-4
I0
I53
I5
tp2250
I0
s(I42
I11
I0
I38
I7
tp2251
I0
s(I57
I37
I0
I54
I44
tp2252
I-100000
s(I60
I8
I1
I57
I9
tp2253
I100000
s(I27
I40
I0
I23
I38
tp2254
I0
s(I64
I29
I0
I61
I36
tp2255
I-100000
s(I60
I-6
I0
I57
I1
tp2256
I-100000
s(I60
I-6
I1
I57
I-4
tp2257
I100000
s(I34
I20
I0
I30
I17
tp2258
I0
s(I19
I-8
I0
I19
I-9
tp2259
I-100000
s(I27
I30
I0
I23
I28
tp2260
I0
s(I34
I27
I1
I30
I29
tp2261
I0
s(I19
I-25
I1
I15
I-24
tp2262
I0
s(I0
I2
I1
I64
I8
tp2263
I0
s(I23
I46
I1
I19
I48
tp2264
I0
s(I64
I40
I0
I62
I44
tp2265
I-100000
s(I30
I-10
I0
I27
I-14
tp2266
I0
s(I30
I-13
I0
I27
I-17
tp2267
I0
s(I23
I-11
I0
I19
I-15
tp2268
I0
s(I30
I37
I0
I27
I46
tp2269
I0
s(I64
I32
I0
I60
I41
tp2270
I-100000
s(I57
I40
I1
I53
I42
tp2271
I0
s(I34
I33
I0
I30
I30
tp2272
I0
s(I4
I-14
I0
I3
I-12
tp2273
I-100000
s(I34
I-23
I1
I30
I-22
tp2274
I0
s(I38
I-21
I0
I34
I-25
tp2275
I0
s(I57
I26
I1
I53
I27
tp2276
I0
s(I15
I-27
I1
I12
I-26
tp2277
I0
s(I27
I-4
I0
I23
I5
tp2278
I0
s(I27
I-1
I0
I23
I-3
tp2279
I0
s(I38
I-11
I0
I34
I-14
tp2280
I0
s(I8
I-4
I0
I4
I-6
tp2281
I0
s(I38
I16
I0
I34
I13
tp2282
I0
s(I42
I0
I0
I38
I-4
tp2283
I0
s(I19
I5
I0
I15
I1
tp2284
I0
s(I15
I-33
I0
I12
I-24
tp2285
I0
s(I45
I39
I0
I42
I35
tp2286
I0
s(I57
I-8
I0
I53
I1
tp2287
I0
s(I42
I6
I0
I38
I2
tp2288
I0
s(I42
I4
I0
I38
I1
tp2289
I0
s(I30
I48
I0
I28
I52
tp2290
I-100000
s(I49
I-16
I0
I45
I-20
tp2291
I0
s(I45
I18
I0
I42
I14
tp2292
I0
s(I64
I19
I0
I60
I28
tp2293
I0
s(I38
I38
I0
I34
I36
tp2294
I0
s(I0
I4
I1
I64
I-18
tp2295
I0
s(I57
I14
I0
I53
I23
tp2296
I0
s(I49
I29
I0
I45
I39
tp2297
I0
s(I0
I9
I0
I64
I14
tp2298
I0
s(I49
I-4
I0
I45
I-8
tp2299
I0
s(I34
I20
I0
I32
I24
tp2300
I-100000
s(I57
I15
I0
I53
I24
tp2301
I0
s(I64
I26
I1
I60
I28
tp2302
I0
s(I42
I31
I0
I41
I32
tp2303
I-100000
s(I0
I5
I1
I64
I22
tp2304
I0
s(I0
I8
I0
I64
I14
tp2305
I0
s(I60
I4
I1
I57
I6
tp2306
I0
s(I45
I-15
I0
I42
I-19
tp2307
I0
s(I38
I42
I0
I34
I40
tp2308
I0
s(I23
I-24
I0
I19
I-27
tp2309
I0
s(I60
I34
I0
I57
I43
tp2310
I0
s(I4
I-6
I1
I3
I-5
tp2311
I-100000
s(I19
I-17
I0
I15
I-7
tp2312
I0
s(I12
I-9
I0
I8
I-13
tp2313
I0
s(I60
I38
I0
I57
I47
tp2314
I0
s(I4
I-21
I0
I3
I-19
tp2315
I-100000
s(I8
I-28
I1
I4
I-25
tp2316
I0
s(I0
I9
I0
I64
I-18
tp2317
I0
s(I64
I-31
I0
I61
I-23
tp2318
I-100000
s(I8
I13
I0
I4
I9
tp2319
I0
s(I27
I32
I0
I23
I41
tp2320
I0
s(I27
I30
I0
I26
I32
tp2321
I-100000
s(I53
I34
I0
I49
I43
tp2322
I0
s(I57
I28
I1
I53
I30
tp2323
I0
s(I45
I36
I0
I42
I45
tp2324
I0
s(I60
I-10
I0
I57
I-14
tp2325
I0
s(I64
I10
I1
I60
I11
tp2326
I0
s(I0
I7
I0
I64
I21
tp2327
I0
s(I60
I-28
I0
I58
I-23
tp2328
I-100000
s(I23
I11
I0
I19
I7
tp2329
I0
s(I19
I-22
I1
I15
I-21
tp2330
I0
s(I53
I16
I0
I49
I26
tp2331
I0
s(I45
I35
I0
I42
I31
tp2332
I0
s(I49
I12
I0
I45
I8
tp2333
I0
s(I4
I-24
I0
I3
I-25
tp2334
I-100000
s(I34
I27
I0
I32
I32
tp2335
I-100000
s(I0
I6
I1
I64
I12
tp2336
I0
s(I60
I10
I0
I57
I7
tp2337
I100000
s(I12
I-32
I0
I8
I-22
tp2338
I0
s(I42
I29
I0
I38
I38
tp2339
I0
s(I4
I29
I1
I3
I28
tp2340
I-100000
s(I57
I31
I1
I53
I33
tp2341
I0
s(I0
I3
I1
I64
I5
tp2342
I0
s(I60
I-12
I0
I58
I-7
tp2343
I-100000
s(I4
I-11
I1
I3
I-11
tp2344
I-100000
s(I19
I-16
I0
I19
I-17
tp2345
I-100000
s(I12
I1
I0
I8
I-2
tp2346
I0
s(I23
I-14
I1
I19
I-13
tp2347
I0
s(I12
I40
I0
I8
I36
tp2348
I0
s(I42
I-28
I0
I38
I-31
tp2349
I0
s(I19
I42
I1
I15
I44
tp2350
I0
s(I8
I-32
I1
I4
I-31
tp2351
I0
s(I38
I-22
I0
I34
I-25
tp2352
I0
s(I60
I7
I0
I58
I13
tp2353
I-100000
s(I34
I-5
I0
I30
I-8
tp2354
I0
s(I0
I7
I0
I64
I-15
tp2355
I0
s(I42
I-2
I0
I38
I-5
tp2356
I0
s(I15
I-27
I0
I12
I-18
tp2357
I0
s(I27
I26
I0
I23
I22
tp2358
I0
s(I19
I-26
I1
I15
I-24
tp2359
I0
s(I0
I5
I1
I64
I-18
tp2360
I0
s(I0
I4
I1
I64
I18
tp2361
I0
s(I4
I21
I0
I3
I19
tp2362
I-100000
s(I60
I29
I1
I57
I31
tp2363
I0
s(I30
I42
I1
I27
I44
tp2364
I0
s(I57
I-13
I0
I53
I-4
tp2365
I0
s(I19
I-26
I0
I15
I-30
tp2366
I0
s(I64
I21
I0
I61
I28
tp2367
I-100000
s(I38
I-18
I0
I34
I-22
tp2368
I0
s(I45
I30
I0
I42
I36
tp2369
I-100000
s(I60
I-26
I0
I57
I-29
tp2370
I100000
s(I60
I-5
I0
I57
I3
tp2371
I100000
s(I23
I-13
I0
I19
I-16
tp2372
I0
s(I38
I38
I1
I34
I41
tp2373
I0
s(I64
I-12
I0
I60
I-15
tp2374
I0
s(I42
I22
I1
I38
I23
tp2375
I0
s(I42
I46
I1
I38
I48
tp2376
I0
s(I49
I36
I0
I45
I32
tp2377
I0
s(I60
I-1
I1
I57
I1
tp2378
I0
s(I53
I31
I1
I53
I32
tp2379
I-100000
s(I4
I8
I0
I0
I5
tp2380
I0
s(I49
I-25
I0
I45
I-29
tp2381
I0
s(I60
I18
I0
I57
I25
tp2382
I-100000
s(I38
I2
I0
I34
I-2
tp2383
I0
s(I60
I-22
I0
I57
I-25
tp2384
I100000
s(I42
I-19
I0
I38
I-10
tp2385
I0
s(I34
I20
I1
I30
I22
tp2386
I0
s(I34
I26
I0
I30
I24
tp2387
I0
s(I4
I2
I0
I1
I-1
tp2388
I-100000
s(I49
I4
I0
I45
I0
tp2389
I0
s(I34
I14
I0
I30
I10
tp2390
I0
s(I27
I-13
I0
I23
I-17
tp2391
I0
s(I60
I-2
I1
I57
I-1
tp2392
I100000
s(I38
I18
I0
I34
I15
tp2393
I0
s(I49
I36
I0
I46
I44
tp2394
I-100000
s(I34
I44
I1
I30
I45
tp2395
I0
s(I45
I11
I0
I42
I7
tp2396
I0
s(I23
I-21
I0
I19
I-24
tp2397
I0
s(I64
I-18
I0
I60
I-22
tp2398
I0
s(I60
I-6
I0
I57
I-9
tp2399
I100000
s(I38
I-14
I0
I34
I-17
tp2400
I0
s(I38
I42
I0
I34
I39
tp2401
I0
s(I0
I6
I0
I64
I-10
tp2402
I0
s(I4
I1
I0
I0
I10
tp2403
I0
s(I19
I-11
I0
I15
I-15
tp2404
I0
s(I15
I37
I0
I14
I40
tp2405
I-100000
s(I4
I25
I0
I3
I24
tp2406
I-100000
s(I27
I-21
I0
I23
I-23
tp2407
I0
s(I0
I2
I1
I64
I-5
tp2408
I0
s(I8
I32
I0
I4
I29
tp2409
I0
s(I27
I32
I0
I23
I28
tp2410
I0
s(I23
I-5
I0
I19
I-8
tp2411
I0
s(I53
I41
I0
I49
I51
tp2412
I0
s(I30
I-6
I0
I28
I-9
tp2413
I-100000
s(I42
I-31
I0
I38
I-35
tp2414
I0
s(I49
I-9
I0
I45
I-12
tp2415
I0
s(I45
I23
I0
I42
I21
tp2416
I0
s(I27
I-3
I0
I23
I-7
tp2417
I0
s(I30
I4
I0
I27
I1
tp2418
I0
s(I0
I10
I0
I64
I-12
tp2419
I0
s(I49
I29
I1
I45
I31
tp2420
I0
s(I49
I17
I1
I45
I19
tp2421
I0
s(I60
I15
I0
I57
I12
tp2422
I0
s(I60
I2
I1
I57
I4
tp2423
I100000
s(I19
I35
I0
I17
I40
tp2424
I-100000
s(I53
I11
I0
I49
I9
tp2425
I0
s(I53
I-3
I0
I49
I-5
tp2426
I0
s(I4
I-14
I1
I3
I-14
tp2427
I-100000
s(I53
I19
I1
I49
I21
tp2428
I0
s(I19
I-14
I0
I15
I-18
tp2429
I0
s(I42
I32
I1
I38
I34
tp2430
I0
s(I57
I-24
I0
I53
I-27
tp2431
I0
s(I30
I19
I0
I27
I16
tp2432
I0
s(I15
I5
I0
I12
I1
tp2433
I0
s(I45
I-6
I0
I42
I-9
tp2434
I0
s(I45
I-29
I0
I42
I-33
tp2435
I-100000
s(I42
I31
I1
I41
I32
tp2436
I-100000
s(I12
I-23
I1
I8
I-21
tp2437
I0
s(I30
I35
I1
I27
I37
tp2438
I0
s(I49
I15
I0
I45
I11
tp2439
I0
s(I4
I-19
I0
I3
I-19
tp2440
I-100000
s(I8
I1
I0
I4
I11
tp2441
I0
s(I49
I14
I1
I45
I16
tp2442
I0
s(I30
I41
I0
I27
I39
tp2443
I0
s(I34
I18
I0
I30
I14
tp2444
I0
s(I8
I11
I0
I4
I9
tp2445
I0
s(I34
I40
I1
I30
I41
tp2446
I0
s(I23
I-1
I0
I19
I-5
tp2447
I0
s(I60
I0
I0
I57
I9
tp2448
I0
s(I42
I-7
I0
I38
I-11
tp2449
I0
s(I64
I36
I1
I60
I37
tp2450
I0
s(I53
I29
I1
I49
I32
tp2451
I-100000
s(I57
I29
I1
I53
I31
tp2452
I0
s(I15
I-20
I1
I12
I-18
tp2453
I0
s(I60
I-23
I1
I57
I-22
tp2454
I100000
s(I0
I5
I1
I64
I11
tp2455
I0
s(I23
I-37
I1
I19
I-36
tp2456
I0
s(I4
I29
I1
I3
I29
tp2457
I-100000
s(I4
I-26
I1
I3
I-27
tp2458
I-100000
s(I4
I-30
I0
I3
I-31
tp2459
I-100000
s(I53
I20
I0
I49
I30
tp2460
I0
s(I49
I19
I0
I45
I16
tp2461
I0
s(I0
I9
I0
I64
I-15
tp2462
I0
s(I15
I-19
I0
I12
I-23
tp2463
I0
s(I49
I26
I0
I48
I28
tp2464
I-100000
s(I4
I-11
I0
I3
I-12
tp2465
I-100000
s(I15
I-25
I0
I12
I-29
tp2466
I0
s(I23
I8
I0
I19
I4
tp2467
I0
s(I15
I-15
I1
I12
I-12
tp2468
I0
s(I53
I41
I0
I51
I44
tp2469
I-100000
s(I19
I42
I0
I18
I44
tp2470
I-100000
s(I64
I9
I1
I60
I10
tp2471
I0
s(I53
I45
I0
I49
I43
tp2472
I0
s(I27
I31
I1
I23
I34
tp2473
I0
s(I27
I38
I0
I24
I44
tp2474
I-100000
s(I53
I29
I0
I51
I32
tp2475
I-100000
s(I0
I4
I1
I64
I38
tp2476
I0
s(I8
I-26
I0
I4
I-16
tp2477
I0
s(I15
I17
I0
I12
I14
tp2478
I0
s(I15
I-2
I0
I12
I-6
tp2479
I0
s(I38
I33
I0
I34
I29
tp2480
I0
s(I23
I14
I0
I19
I11
tp2481
I0
s(I49
I-2
I0
I45
I-6
tp2482
I0
s(I38
I1
I0
I34
I-1
tp2483
I0
s(I19
I43
I0
I19
I44
tp2484
I-100000
s(I60
I19
I0
I58
I25
tp2485
I-100000
s(I64
I19
I0
I62
I25
tp2486
I-100000
s(I27
I-26
I0
I23
I-29
tp2487
I0
s(I53
I29
I0
I49
I27
tp2488
I0
s(I57
I-23
I0
I53
I-14
tp2489
I0
s(I30
I45
I0
I27
I52
tp2490
I-100000
s(I30
I19
I0
I27
I15
tp2491
I0
s(I42
I-11
I0
I38
I-15
tp2492
I0
s(I60
I6
I1
I57
I7
tp2493
I100000
s(I8
I-21
I0
I4
I-11
tp2494
I0
s(I12
I-15
I0
I8
I-6
tp2495
I0
s(I15
I-33
I0
I12
I-37
tp2496
I0
s(I57
I9
I1
I53
I10
tp2497
I0
s(I15
I-17
I1
I12
I-15
tp2498
I0
s(I64
I14
I0
I60
I11
tp2499
I0
s(I57
I39
I0
I53
I49
tp2500
I0
s(I19
I-12
I0
I15
I-2
tp2501
I0
s(I53
I-5
I0
I49
I-8
tp2502
I0
s(I64
I14
I1
I60
I16
tp2503
I0
s(I8
I-13
I1
I4
I-10
tp2504
I0
s(I8
I-15
I0
I4
I-6
tp2505
I0
s(I53
I13
I0
I49
I11
tp2506
I0
s(I15
I-29
I0
I12
I-32
tp2507
I0
s(I4
I-17
I1
I3
I-17
tp2508
I-100000
s(I0
I2
I1
I64
I-9
tp2509
I0
s(I60
I-21
I0
I58
I-15
tp2510
I-100000
s(I53
I31
I0
I53
I32
tp2511
I-100000
s(I30
I-22
I0
I27
I-13
tp2512
I0
s(I27
I10
I0
I23
I7
tp2513
I0
s(I64
I-22
I1
I60
I-21
tp2514
I0
s(I23
I32
I0
I20
I40
tp2515
I-100000
s(I53
I15
I1
I49
I17
tp2516
I0
s(I30
I30
I0
I29
I32
tp2517
I-100000
s(I60
I-4
I0
I58
I1
tp2518
I-100000
s(I12
I-20
I1
I8
I-18
tp2519
I0
s(I38
I21
I0
I34
I17
tp2520
I0
s(I57
I41
I1
I53
I43
tp2521
I0
s(I38
I23
I0
I34
I33
tp2522
I-100000
s(I45
I2
I0
I42
I-2
tp2523
I0
s(I0
I6
I1
I64
I33
tp2524
I0
s(I38
I26
I1
I34
I27
tp2525
I0
s(I38
I28
I0
I34
I24
tp2526
I0
s(I42
I25
I0
I40
I28
tp2527
I-100000
s(I49
I43
I0
I45
I41
tp2528
I0
s(I34
I36
I0
I30
I46
tp2529
I0
s(I45
I23
I1
I45
I24
tp2530
I-100000
s(I34
I-1
I0
I30
I-4
tp2531
I0
s(I34
I24
I0
I30
I20
tp2532
I0
s(I53
I31
I0
I49
I40
tp2533
I0
s(I30
I41
I0
I27
I50
tp2534
I0
s(I19
I-19
I1
I15
I-18
tp2535
I0
s(I45
I44
I0
I43
I48
tp2536
I-100000
s(I8
I-5
I1
I4
I-4
tp2537
I0
s(I45
I-20
I0
I42
I-24
tp2538
I0
s(I23
I-32
I1
I23
I-33
tp2539
I-100000
s(I45
I-21
I0
I42
I-25
tp2540
I-100000
s(I42
I12
I0
I38
I8
tp2541
I0
s(I53
I30
I0
I49
I39
tp2542
I0
s(I57
I16
I0
I53
I25
tp2543
I0
s(I42
I44
I0
I38
I40
tp2544
I0
s(I60
I36
I1
I57
I38
tp2545
I0
s(I34
I6
I0
I30
I3
tp2546
I0
s(I12
I-12
I0
I8
I-14
tp2547
I0
s(I23
I-22
I0
I19
I-25
tp2548
I0
s(I8
I-12
I1
I4
I-11
tp2549
I0
s(I30
I-33
I0
I27
I-37
tp2550
I0
s(I64
I-6
I0
I61
I-9
tp2551
I-100000
s(I49
I-8
I0
I45
I-12
tp2552
I0
s(I64
I9
I0
I61
I16
tp2553
I-100000
s(I53
I23
I0
I51
I28
tp2554
I-100000
s(I0
I9
I0
I64
I-9
tp2555
I0
s(I60
I6
I0
I57
I2
tp2556
I0
s(I53
I11
I0
I49
I20
tp2557
I0
s(I23
I46
I1
I20
I48
tp2558
I-100000
s(I57
I33
I0
I54
I40
tp2559
I-100000
s(I23
I4
I0
I19
I2
tp2560
I0
s(I8
I3
I0
I4
I-1
tp2561
I0
s(I15
I-36
I0
I12
I-40
tp2562
I0
s(I0
I7
I0
I64
I29
tp2563
I0
s(I15
I30
I0
I12
I27
tp2564
I0
s(I19
I35
I1
I15
I38
tp2565
I0
s(I53
I49
I0
I49
I47
tp2566
I0
s(I57
I17
I0
I54
I24
tp2567
I-100000
s(I34
I32
I0
I30
I41
tp2568
I0
s(I38
I35
I1
I34
I37
tp2569
I0
s(I64
I-7
I0
I61
I1
tp2570
I-100000
s(I30
I28
I0
I28
I32
tp2571
I-100000
s(I64
I-15
I1
I60
I-14
tp2572
I0
s(I53
I-8
I0
I49
I-12
tp2573
I0
s(I34
I15
I0
I30
I12
tp2574
I0
s(I42
I24
I0
I38
I32
tp2575
I-100000
s(I64
I-20
I0
I61
I-12
tp2576
I-100000
s(I8
I0
I1
I4
I1
tp2577
I0
s(I42
I16
I0
I38
I24
tp2578
I-100000
s(I38
I20
I0
I34
I16
tp2579
I0
s(I23
I39
I0
I19
I36
tp2580
I0
s(I42
I34
I0
I38
I30
tp2581
I0
s(I60
I39
I0
I58
I45
tp2582
I-100000
s(I4
I37
I0
I3
I39
tp2583
I-100000
s(I38
I43
I1
I34
I46
tp2584
I0
s(I53
I4
I0
I49
I2
tp2585
I0
s(I42
I21
I1
I38
I23
tp2586
I0
s(I4
I-25
I1
I3
I-25
tp2587
I-100000
s(I42
I31
I0
I38
I28
tp2588
I0
s(I4
I-2
I1
I3
I-2
tp2589
I-100000
s(I34
I-3
I0
I30
I-7
tp2590
I0
s(I45
I31
I0
I45
I32
tp2591
I-100000
s(I0
I7
I0
I64
I-7
tp2592
I0
s(I4
I-16
I1
I3
I-15
tp2593
I-100000
s(I15
I-5
I0
I12
I-8
tp2594
I0
s(I34
I29
I0
I30
I26
tp2595
I0
s(I23
I48
I0
I19
I44
tp2596
I0
s(I0
I2
I1
I64
I-4
tp2597
I0
s(I57
I12
I0
I53
I21
tp2598
I0
s(I8
I-2
I0
I4
I-5
tp2599
I0
s(I57
I4
I0
I53
I2
tp2600
I0
s(I19
I43
I1
I19
I44
tp2601
I-100000
s(I60
I-19
I1
I57
I-18
tp2602
I100000
s(I49
I18
I0
I45
I27
tp2603
I0
s(I49
I27
I1
I49
I28
tp2604
I-100000
s(I15
I-18
I1
I12
I-17
tp2605
I0
s(I23
I6
I0
I19
I2
tp2606
I0
s(I60
I11
I1
I57
I12
tp2607
I100000
s(I42
I-8
I0
I38
I1
tp2608
I0
s(I12
I-4
I0
I8
I-6
tp2609
I0
s(I38
I6
I0
I34
I2
tp2610
I0
s(I57
I-6
I0
I53
I-9
tp2611
I0
s(I60
I-9
I1
I57
I-8
tp2612
I100000
s(I19
I2
I0
I15
I-1
tp2613
I0
s(I45
I20
I0
I42
I29
tp2614
I0
s(I49
I-14
I0
I45
I-18
tp2615
I0
s(I27
I27
I0
I23
I24
tp2616
I0
s(I19
I3
I0
I15
I1
tp2617
I0
s(I0
I6
I0
I64
I-18
tp2618
I0
s(I15
I-14
I0
I13
I-17
tp2619
I-100000
s(I53
I22
I0
I49
I20
tp2620
I0
s(I38
I2
I0
I34
I-1
tp2621
I0
s(I0
I8
I0
I64
I42
tp2622
I0
s(I19
I24
I0
I15
I20
tp2623
I0
s(I27
I-27
I0
I23
I-31
tp2624
I0
s(I60
I0
I1
I57
I1
tp2625
I100000
s(I15
I-6
I0
I13
I-9
tp2626
I-100000
s(I8
I-10
I0
I4
I0
tp2627
I0
s(I12
I-41
I0
I8
I-32
tp2628
I0
s(I53
I3
I0
I49
I1
tp2629
I0
s(I8
I-22
I0
I4
I-26
tp2630
I0
s(I12
I-3
I1
I8
I-1
tp2631
I0
s(I60
I12
I1
I57
I13
tp2632
I100000
s(I19
I42
I1
I16
I44
tp2633
I-100000
s(I34
I17
I0
I30
I14
tp2634
I0
s(I12
I29
I0
I8
I25
tp2635
I0
s(I12
I-12
I0
I8
I-3
tp2636
I0
s(I23
I-17
I0
I19
I-21
tp2637
I0
s(I27
I-28
I0
I23
I-32
tp2638
I0
s(I38
I10
I0
I34
I6
tp2639
I0
s(I42
I41
I0
I38
I39
tp2640
I0
s(I0
I5
I1
I64
I-13
tp2641
I0
s(I49
I47
I0
I45
I43
tp2642
I0
s(I23
I-8
I0
I22
I-9
tp2643
I-100000
s(I64
I8
I0
I61
I16
tp2644
I-100000
s(I42
I50
I0
I40
I52
tp2645
I-100000
s(I64
I-8
I1
I60
I-6
tp2646
I0
s(I30
I12
I0
I27
I9
tp2647
I0
s(I38
I48
I1
I34
I50
tp2648
I0
s(I42
I-16
I0
I38
I-19
tp2649
I0
s(I15
I7
I0
I12
I3
tp2650
I0
s(I53
I13
I0
I49
I22
tp2651
I0
s(I30
I-3
I0
I27
I-7
tp2652
I0
s(I34
I-12
I0
I30
I-15
tp2653
I0
s(I57
I13
I0
I53
I11
tp2654
I0
s(I60
I-20
I1
I57
I-18
tp2655
I0
s(I15
I-22
I1
I12
I-21
tp2656
I0
s(I27
I16
I0
I23
I12
tp2657
I0
s(I30
I-15
I0
I27
I-19
tp2658
I0
s(I49
I35
I0
I45
I31
tp2659
I0
s(I12
I-19
I0
I8
I-21
tp2660
I0
s(I45
I32
I1
I42
I34
tp2661
I0
s(I23
I36
I1
I19
I38
tp2662
I0
s(I64
I-31
I1
I60
I-29
tp2663
I0
s(I64
I9
I1
I60
I11
tp2664
I0
s(I15
I-4
I0
I12
I-8
tp2665
I0
s(I60
I-4
I1
I57
I-2
tp2666
I0
s(I23
I-15
I1
I19
I-13
tp2667
I0
s(I45
I44
I1
I42
I46
tp2668
I0
s(I64
I-17
I0
I62
I-12
tp2669
I-100000
s(I53
I21
I0
I49
I19
tp2670
I0
s(I19
I-13
I1
I15
I-12
tp2671
I0
s(I19
I7
I0
I15
I3
tp2672
I0
s(I15
I-11
I1
I12
I-9
tp2673
I0
s(I12
I27
I0
I8
I23
tp2674
I0
s(I15
I36
I0
I12
I32
tp2675
I0
s(I49
I-27
I0
I48
I-29
tp2676
I-100000
s(I23
I42
I0
I20
I48
tp2677
I-100000
s(I12
I-11
I1
I8
I-8
tp2678
I0
s(I53
I34
I0
I49
I31
tp2679
I0
s(I19
I20
I0
I15
I16
tp2680
I0
s(I49
I-21
I0
I45
I-25
tp2681
I0
s(I64
I30
I1
I60
I32
tp2682
I0
s(I60
I-11
I1
I57
I-10
tp2683
I100000
s(I57
I29
I0
I54
I36
tp2684
I-100000
s(I30
I30
I1
I27
I32
tp2685
I-100000
s(I57
I4
I0
I53
I13
tp2686
I0
s(I23
I-23
I1
I19
I-22
tp2687
I0
s(I42
I7
I0
I38
I3
tp2688
I0
s(I53
I35
I1
I49
I37
tp2689
I0
s(I49
I18
I0
I45
I14
tp2690
I0
s(I42
I50
I0
I41
I52
tp2691
I-100000
s(I12
I33
I0
I8
I29
tp2692
I0
s(I4
I7
I0
I0
I3
tp2693
I0
s(I19
I-16
I1
I19
I-17
tp2694
I-100000
s(I34
I-14
I0
I30
I-18
tp2695
I0
s(I34
I8
I0
I30
I5
tp2696
I0
s(I57
I35
I0
I53
I44
tp2697
I-100000
s(I15
I-13
I0
I12
I-16
tp2698
I0
s(I34
I35
I1
I34
I36
tp2699
I-100000
s(I12
I-30
I0
I8
I-21
tp2700
I0
s(I34
I-18
I0
I30
I-22
tp2701
I0
s(I19
I28
I0
I15
I25
tp2702
I0
s(I19
I-23
I0
I15
I-26
tp2703
I0
s(I53
I47
I1
I49
I49
tp2704
I0
s(I8
I-7
I0
I4
I3
tp2705
I0
s(I8
I-6
I0
I4
I4
tp2706
I0
s(I64
I-20
I1
I60
I-18
tp2707
I0
s(I42
I40
I1
I38
I42
tp2708
I0
s(I57
I13
I0
I54
I20
tp2709
I-100000
s(I27
I30
I1
I23
I33
tp2710
I0
s(I27
I4
I0
I23
I0
tp2711
I0
s(I34
I-43
I0
I32
I-45
tp2712
I-100000
s(I38
I-6
I0
I34
I-10
tp2713
I0
s(I4
I-17
I0
I3
I-16
tp2714
I-100000
s(I4
I-7
I1
I3
I-7
tp2715
I-100000
s(I15
I-39
I0
I12
I-30
tp2716
I0
s(I30
I-26
I0
I27
I-17
tp2717
I0
s(I42
I29
I0
I38
I25
tp2718
I0
s(I49
I49
I1
I45
I51
tp2719
I0
s(I30
I-2
I0
I27
I-5
tp2720
I0
s(I0
I3
I1
I64
I13
tp2721
I0
s(I45
I1
I0
I42
I-3
tp2722
I0
s(I15
I7
I0
I12
I4
tp2723
I0
s(I15
I-13
I1
I12
I-12
tp2724
I0
s(I12
I-23
I0
I8
I-14
tp2725
I0
s(I53
I15
I1
I49
I18
tp2726
I0
s(I15
I44
I0
I13
I48
tp2727
I-100000
s(I53
I9
I0
I49
I7
tp2728
I0
s(I23
I-25
I1
I19
I-23
tp2729
I0
s(I45
I14
I0
I42
I23
tp2730
I0
s(I4
I-3
I1
I3
I-3
tp2731
I-100000
s(I30
I31
I0
I30
I32
tp2732
I-100000
s(I0
I5
I1
I64
I30
tp2733
I0
s(I38
I-39
I0
I34
I-43
tp2734
I0
s(I49
I13
I1
I45
I14
tp2735
I0
s(I64
I-19
I0
I61
I-11
tp2736
I-100000
s(I27
I-17
I1
I23
I-14
tp2737
I0
s(I60
I11
I0
I57
I17
tp2738
I-100000
s(I53
I-8
I0
I49
I-11
tp2739
I0
s(I49
I16
I0
I45
I12
tp2740
I0
s(I34
I-11
I0
I32
I-13
tp2741
I-100000
s(I0
I2
I1
I64
I-17
tp2742
I0
s(I57
I-16
I0
I53
I-7
tp2743
I0
s(I30
I21
I0
I27
I18
tp2744
I0
s(I4
I3
I1
I0
I4
tp2745
I0
s(I19
I8
I0
I15
I4
tp2746
I0
s(I0
I0
I0
I64
I-10
tp2747
I0
s(I12
I-19
I1
I8
I-18
tp2748
I0
s(I15
I-7
I1
I12
I-5
tp2749
I0
s(I64
I-16
I0
I60
I-20
tp2750
I0
s(I4
I-31
I0
I3
I-29
tp2751
I-100000
s(I60
I14
I1
I57
I16
tp2752
I100000
s(I0
I3
I1
I64
I-3
tp2753
I0
s(I30
I16
I0
I27
I13
tp2754
I0
s(I15
I-23
I1
I12
I-22
tp2755
I0
s(I64
I24
I1
I60
I25
tp2756
I0
s(I49
I21
I0
I45
I30
tp2757
I0
s(I45
I24
I1
I42
I26
tp2758
I0
s(I38
I-7
I0
I34
I-11
tp2759
I0
s(I12
I1
I0
I8
I-1
tp2760
I0
s(I15
I-15
I1
I12
I-14
tp2761
I0
s(I23
I23
I0
I19
I20
tp2762
I0
s(I15
I24
I0
I12
I20
tp2763
I0
s(I12
I28
I0
I8
I24
tp2764
I0
s(I12
I-1
I0
I8
I8
tp2765
I0
s(I30
I29
I0
I27
I27
tp2766
I0
s(I64
I-7
I1
I60
I-6
tp2767
I0
s(I64
I-10
I0
I61
I-13
tp2768
I-100000
s(I12
I-11
I1
I8
I-9
tp2769
I0
s(I30
I32
I0
I27
I29
tp2770
I0
s(I64
I3
I0
I62
I8
tp2771
I-100000
s(I0
I8
I0
I64
I-14
tp2772
I0
s(I53
I39
I1
I53
I40
tp2773
I-100000
s(I4
I-14
I0
I3
I-15
tp2774
I-100000
s(I60
I24
I1
I57
I26
tp2775
I0
s(I12
I-24
I0
I8
I-15
tp2776
I0
s(I27
I-11
I0
I23
I-15
tp2777
I0
s(I27
I43
I0
I26
I44
tp2778
I-100000
s(I60
I24
I1
I57
I25
tp2779
I100000
s(I8
I-17
I0
I4
I-8
tp2780
I0
s(I30
I20
I0
I27
I17
tp2781
I0
s(I38
I-35
I0
I34
I-39
tp2782
I0
s(I12
I32
I0
I8
I28
tp2783
I0
s(I38
I33
I1
I34
I34
tp2784
I0
s(I4
I-13
I0
I3
I-14
tp2785
I-100000
s(I34
I30
I1
I30
I32
tp2786
I0
s(I8
I-23
I0
I4
I-14
tp2787
I0
s(I27
I-12
I1
I23
I-11
tp2788
I0
s(I53
I-33
I0
I49
I-37
tp2789
I0
s(I45
I27
I0
I42
I24
tp2790
I0
s(I19
I41
I1
I15
I43
tp2791
I0
s(I4
I-30
I0
I3
I-30
tp2792
I-100000
s(I60
I-17
I1
I57
I-16
tp2793
I0
s(I15
I32
I0
I12
I29
tp2794
I0
s(I0
I9
I0
I64
I-2
tp2795
I0
s(I60
I32
I0
I57
I40
tp2796
I100000
s(I30
I40
I0
I27
I36
tp2797
I0
s(I12
I14
I0
I8
I10
tp2798
I0
s(I38
I-13
I0
I34
I-17
tp2799
I0
s(I64
I25
I0
I61
I32
tp2800
I-100000
s(I42
I49
I0
I40
I52
tp2801
I-100000
s(I49
I8
I0
I45
I4
tp2802
I0
s(I60
I-21
I1
I57
I-20
tp2803
I100000
s(I23
I5
I0
I19
I3
tp2804
I0
s(I27
I-25
I0
I23
I-29
tp2805
I0
s(I19
I10
I0
I15
I7
tp2806
I0
s(I8
I-22
I1
I4
I-21
tp2807
I0
s(I4
I3
I1
I0
I6
tp2808
I0
s(I53
I45
I0
I49
I41
tp2809
I0
s(I42
I32
I1
I38
I33
tp2810
I0
s(I60
I3
I0
I57
I0
tp2811
I0
s(I49
I44
I0
I46
I52
tp2812
I-100000
s(I60
I-5
I1
I57
I-4
tp2813
I100000
s(I4
I-5
I0
I3
I-4
tp2814
I-100000
s(I45
I15
I1
I42
I16
tp2815
I0
s(I27
I39
I0
I24
I44
tp2816
I-100000
s(I4
I-16
I1
I3
I-16
tp2817
I-100000
s(I0
I9
I0
I64
I21
tp2818
I0
s(I42
I11
I0
I38
I8
tp2819
I0
s(I4
I-30
I1
I3
I-31
tp2820
I-100000
s(I42
I-8
I0
I38
I-12
tp2821
I0
s(I38
I39
I0
I38
I40
tp2822
I-100000
s(I12
I-11
I0
I8
I-2
tp2823
I0
s(I19
I46
I1
I16
I48
tp2824
I-100000
s(I23
I-11
I0
I19
I-2
tp2825
I0
s(I45
I-25
I1
I42
I-24
tp2826
I0
s(I57
I26
I0
I53
I35
tp2827
I0
s(I27
I20
I0
I23
I16
tp2828
I0
s(I0
I2
I1
I64
I-12
tp2829
I0
s(I30
I-8
I0
I27
I-12
tp2830
I0
s(I34
I-10
I0
I30
I-14
tp2831
I0
s(I60
I-8
I0
I58
I-3
tp2832
I-100000
s(I42
I5
I0
I38
I2
tp2833
I0
s(I19
I-20
I0
I19
I-21
tp2834
I-100000
s(I57
I-3
I0
I53
I-5
tp2835
I0
s(I42
I25
I0
I38
I34
tp2836
I0
s(I30
I38
I1
I27
I40
tp2837
I0
s(I12
I-16
I0
I8
I-18
tp2838
I0
s(I49
I31
I0
I49
I32
tp2839
I-100000
s(I27
I-33
I1
I23
I-32
tp2840
I0
s(I27
I14
I0
I23
I11
tp2841
I0
s(I64
I-29
I0
I60
I-20
tp2842
I-100000
s(I4
I0
I1
I0
I2
tp2843
I0
s(I42
I-10
I0
I38
I-13
tp2844
I0
s(I15
I-16
I1
I12
I-14
tp2845
I0
s(I64
I15
I0
I60
I24
tp2846
I-100000
s(I23
I-19
I1
I19
I-18
tp2847
I0
s(I19
I40
I0
I15
I36
tp2848
I0
s(I30
I40
I1
I27
I42
tp2849
I0
s(I8
I-10
I1
I4
I-8
tp2850
I0
s(I34
I-21
I0
I30
I-25
tp2851
I0
s(I19
I-34
I1
I15
I-33
tp2852
I0
s(I57
I11
I0
I54
I16
tp2853
I-100000
s(I34
I-1
I0
I30
I-5
tp2854
I0
s(I60
I-5
I0
I57
I4
tp2855
I0
s(I0
I8
I0
I64
I34
tp2856
I0
s(I15
I-37
I0
I12
I-41
tp2857
I0
s(I8
I-9
I0
I4
I0
tp2858
I0
s(I60
I-14
I1
I57
I-13
tp2859
I100000
s(I42
I34
I1
I38
I36
tp2860
I-100000
s(I45
I16
I0
I42
I12
tp2861
I0
s(I38
I44
I0
I35
I52
tp2862
I-100000
s(I34
I12
I0
I30
I9
tp2863
I0
s(I8
I-17
I0
I4
I-19
tp2864
I0
s(I12
I3
I0
I8
I-1
tp2865
I0
s(I64
I-1
I1
I60
I1
tp2866
I0
s(I15
I-42
I0
I13
I-45
tp2867
I-100000
s(I30
I37
I1
I27
I38
tp2868
I0
s(I53
I33
I1
I49
I36
tp2869
I0
s(I8
I-12
I1
I4
I-10
tp2870
I0
s(I38
I43
I0
I36
I48
tp2871
I-100000
s(I4
I-11
I1
I3
I-10
tp2872
I-100000
s(I8
I-31
I1
I4
I-29
tp2873
I0
s(I30
I0
I0
I27
I-3
tp2874
I0
s(I30
I-18
I0
I27
I-22
tp2875
I0
s(I0
I5
I1
I64
I-5
tp2876
I0
s(I4
I32
I0
I3
I31
tp2877
I-100000
s(I12
I-9
I0
I8
I-12
tp2878
I0
s(I0
I1
I1
I64
I-14
tp2879
I0
s(I53
I39
I1
I49
I42
tp2880
I0
s(I60
I28
I1
I57
I29
tp2881
I100000
s(I19
I0
I0
I15
I-2
tp2882
I0
s(I8
I-13
I0
I4
I-16
tp2883
I0
s(I30
I15
I0
I27
I12
tp2884
I0
s(I0
I4
I1
I64
I-3
tp2885
I0
s(I12
I42
I1
I8
I44
tp2886
I-100000
s(I4
I9
I0
I0
I6
tp2887
I0
s(I60
I17
I0
I59
I20
tp2888
I-100000
s(I4
I-8
I0
I3
I-10
tp2889
I-100000
s(I4
I-26
I0
I3
I-27
tp2890
I-100000
s(I19
I41
I0
I16
I49
tp2891
I-100000
s(I0
I7
I0
I64
I32
tp2892
I0
s(I38
I24
I0
I34
I33
tp2893
I0
s(I23
I14
I0
I19
I10
tp2894
I0
s(I64
I17
I0
I61
I24
tp2895
I-100000
s(I12
I-13
I0
I8
I-4
tp2896
I0
s(I19
I-15
I1
I15
I-14
tp2897
I0
s(I4
I-12
I0
I3
I-11
tp2898
I-100000
s(I15
I11
I0
I12
I7
tp2899
I0
s(I8
I-1
I1
I4
I2
tp2900
I0
s(I30
I8
I0
I27
I4
tp2901
I0
s(I19
I46
I0
I18
I48
tp2902
I-100000
s(I27
I-22
I0
I23
I-25
tp2903
I0
s(I57
I45
I0
I54
I52
tp2904
I-100000
s(I45
I-4
I0
I42
I-7
tp2905
I0
s(I64
I37
I1
I60
I39
tp2906
I0
s(I38
I18
I1
I34
I19
tp2907
I0
s(I8
I0
I1
I4
I2
tp2908
I0
s(I30
I-12
I0
I27
I-15
tp2909
I0
s(I38
I37
I0
I34
I33
tp2910
I0
s(I42
I-15
I0
I38
I-18
tp2911
I0
s(I49
I-28
I0
I45
I-32
tp2912
I0
s(I30
I24
I0
I27
I20
tp2913
I0
s(I60
I8
I1
I57
I10
tp2914
I0
s(I4
I-16
I0
I3
I-14
tp2915
I-100000
s(I60
I-23
I0
I59
I-20
tp2916
I-100000
s(I27
I34
I1
I23
I35
tp2917
I0
s(I27
I3
I0
I23
I1
tp2918
I0
s(I64
I43
I0
I62
I48
tp2919
I-100000
s(I8
I-24
I1
I4
I-21
tp2920
I0
s(I45
I15
I1
I44
I16
tp2921
I-100000
s(I53
I23
I0
I49
I20
tp2922
I0
s(I34
I3
I0
I30
I0
tp2923
I0
s(I60
I-7
I1
I57
I-6
tp2924
I100000
s(I60
I32
I1
I57
I33
tp2925
I100000
s(I42
I16
I0
I38
I25
tp2926
I0
s(I4
I-25
I0
I3
I-26
tp2927
I-100000
s(I30
I29
I1
I27
I32
tp2928
I-100000
s(I12
I-24
I0
I8
I-26
tp2929
I0
s(I42
I8
I0
I38
I5
tp2930
I0
s(I49
I20
I0
I45
I16
tp2931
I0
s(I23
I47
I1
I20
I48
tp2932
I-100000
s(I45
I23
I1
I42
I25
tp2933
I0
s(I64
I1
I1
I60
I2
tp2934
I0
s(I64
I34
I1
I60
I36
tp2935
I0
s(I60
I1
I1
I57
I2
tp2936
I100000
s(I8
I23
I1
I4
I24
tp2937
I0
s(I19
I-24
I0
I15
I-14
tp2938
I0
s(I42
I37
I0
I38
I47
tp2939
I0
s(I30
I36
I0
I27
I32
tp2940
I0
s(I45
I28
I0
I42
I38
tp2941
I0
s(I12
I15
I0
I8
I11
tp2942
I0
s(I57
I-3
I0
I53
I7
tp2943
I0
s(I12
I-15
I0
I8
I-18
tp2944
I0
s(I4
I19
I0
I3
I18
tp2945
I-100000
s(I64
I42
I0
I60
I38
tp2946
I0
s(I45
I-10
I0
I42
I-13
tp2947
I0
s(I60
I9
I0
I57
I18
tp2948
I0
s(I27
I38
I0
I26
I40
tp2949
I-100000
s(I34
I34
I1
I30
I36
tp2950
I0
s(I30
I-30
I0
I27
I-33
tp2951
I0
s(I49
I43
I0
I45
I39
tp2952
I0
s(I45
I37
I0
I42
I34
tp2953
I0
s(I34
I19
I0
I30
I15
tp2954
I0
s(I19
I10
I0
I15
I6
tp2955
I0
s(I45
I39
I0
I42
I37
tp2956
I0
s(I38
I-21
I0
I34
I-24
tp2957
I0
s(I30
I-17
I0
I27
I-21
tp2958
I0
s(I53
I39
I0
I49
I36
tp2959
I0
s(I23
I-7
I0
I19
I-11
tp2960
I0
s(I23
I-23
I0
I19
I-26
tp2961
I0
s(I8
I-20
I0
I4
I-22
tp2962
I0
s(I19
I42
I1
I15
I43
tp2963
I0
s(I4
I-2
I0
I3
I-3
tp2964
I-100000
s(I38
I35
I0
I38
I36
tp2965
I-100000
s(I45
I22
I0
I42
I31
tp2966
I0
s(I45
I16
I0
I42
I25
tp2967
I0
s(I49
I-11
I0
I45
I-14
tp2968
I0
s(I64
I12
I1
I60
I13
tp2969
I0
s(I53
I29
I0
I49
I39
tp2970
I0
s(I30
I-6
I1
I27
I-4
tp2971
I0
s(I34
I29
I0
I31
I36
tp2972
I-100000
s(I60
I12
I0
I57
I21
tp2973
I0
s(I30
I48
I1
I27
I50
tp2974
I0
s(I4
I2
I1
I0
I3
tp2975
I0
s(I57
I3
I0
I53
I13
tp2976
I0
s(I19
I-22
I0
I15
I-26
tp2977
I0
s(I34
I34
I0
I30
I44
tp2978
I-100000
s(I23
I-19
I0
I19
I-23
tp2979
I0
s(I15
I19
I0
I12
I15
tp2980
I0
s(I27
I47
I0
I23
I43
tp2981
I0
s(I64
I2
I0
I62
I8
tp2982
I-100000
s(I49
I37
I1
I45
I40
tp2983
I0
s(I57
I33
I0
I53
I31
tp2984
I0
s(I57
I31
I0
I53
I41
tp2985
I0
s(I4
I-22
I1
I3
I-21
tp2986
I-100000
s(I27
I44
I1
I23
I47
tp2987
I0
s(I19
I-30
I1
I15
I-29
tp2988
I0
s(I0
I8
I0
I64
I22
tp2989
I0
s(I49
I38
I0
I45
I47
tp2990
I0
s(I0
I2
I1
I64
I-25
tp2991
I0
s(I53
I-7
I0
I49
I-9
tp2992
I0
s(I15
I-30
I1
I12
I-28
tp2993
I0
s(I12
I-1
I0
I8
I-4
tp2994
I0
s(I4
I24
I0
I3
I26
tp2995
I-100000
s(I64
I40
I1
I60
I41
tp2996
I0
s(I45
I32
I1
I42
I33
tp2997
I0
s(I0
I0
I0
I64
I-2
tp2998
I0
s(I60
I2
I1
I57
I3
tp2999
I100000
s(I15
I-28
I1
I12
I-26
tp3000
I0
s(I30
I11
I0
I27
I7
tp3001
I0
s(I0
I7
I0
I64
I-8
tp3002
I0
s(I60
I-12
I1
I57
I-11
tp3003
I100000
s(I8
I-18
I0
I4
I-22
tp3004
I0
s(I42
I32
I0
I38
I28
tp3005
I0
s(I15
I-2
I0
I12
I-4
tp3006
I0
s(I19
I-39
I0
I15
I-42
tp3007
I0
s(I42
I-4
I0
I38
I-8
tp3008
I0
s(I45
I27
I0
I42
I23
tp3009
I0
s(I15
I-1
I1
I12
I2
tp3010
I0
s(I0
I3
I1
I64
I-11
tp3011
I0
s(I64
I30
I1
I60
I31
tp3012
I0
s(I42
I22
I0
I38
I31
tp3013
I0
s(I12
I17
I0
I8
I13
tp3014
I0
s(I34
I25
I0
I30
I34
tp3015
I0
s(I27
I-20
I0
I26
I-21
tp3016
I-100000
s(I38
I7
I0
I34
I3
tp3017
I0
s(I42
I16
I1
I38
I17
tp3018
I0
s(I34
I-33
I0
I30
I-37
tp3019
I0
s(I0
I0
I0
I64
I2
tp3020
I0
s(I49
I15
I0
I45
I12
tp3021
I0
s(I49
I45
I0
I46
I52
tp3022
I-100000
s(I60
I30
I1
I57
I32
tp3023
I100000
s(I45
I-41
I0
I42
I-45
tp3024
I-100000
s(I64
I14
I1
I60
I15
tp3025
I0
s(I0
I8
I0
I64
I-22
tp3026
I0
s(I53
I37
I0
I49
I35
tp3027
I0
s(I0
I2
I0
I-2
I-1
tp3028
I-100000
s(I57
I-7
I0
I53
I2
tp3029
I0
s(I27
I-10
I0
I23
I-14
tp3030
I0
s(I4
I21
I0
I3
I20
tp3031
I-100000
s(I38
I-16
I0
I34
I-19
tp3032
I0
s(I42
I7
I0
I38
I4
tp3033
I0
s(I15
I-10
I1
I12
I-9
tp3034
I0
s(I27
I-22
I0
I23
I-26
tp3035
I0
s(I53
I-13
I0
I49
I-17
tp3036
I0
s(I42
I-18
I0
I38
I-21
tp3037
I0
s(I12
I-9
I0
I8
I1
tp3038
I0
s(I53
I47
I0
I51
I52
tp3039
I-100000
s(I15
I-13
I0
I12
I-17
tp3040
I0
s(I0
I5
I1
I64
I14
tp3041
I0
s(I19
I-10
I1
I15
I-8
tp3042
I0
s(I27
I31
I0
I23
I40
tp3043
I-100000
s(I42
I24
I1
I38
I26
tp3044
I0
s(I42
I47
I0
I38
I45
tp3045
I0
s(I0
I6
I1
I64
I8
tp3046
I0
s(I60
I8
I0
I58
I13
tp3047
I-100000
s(I60
I36
I1
I57
I37
tp3048
I100000
s(I0
I9
I0
I64
I-10
tp3049
I0
s(I53
I33
I0
I49
I31
tp3050
I0
s(I60
I19
I1
I57
I21
tp3051
I0
s(I38
I42
I0
I35
I48
tp3052
I-100000
s(I23
I-11
I0
I19
I-1
tp3053
I0
s(I34
I19
I0
I30
I16
tp3054
I0
s(I45
I47
I0
I43
I52
tp3055
I-100000
s(I60
I8
I0
I57
I17
tp3056
I0
s(I57
I32
I0
I53
I41
tp3057
I0
s(I15
I-21
I0
I12
I-12
tp3058
I0
s(I19
I-3
I0
I15
I-7
tp3059
I0
s(I60
I9
I0
I57
I17
tp3060
I100000
s(I27
I-24
I0
I23
I-28
tp3061
I0
s(I45
I35
I1
I42
I36
tp3062
I0
s(I49
I26
I0
I45
I24
tp3063
I0
s(I27
I-20
I0
I23
I-24
tp3064
I0
s(I12
I-32
I0
I8
I-36
tp3065
I0
s(I45
I29
I0
I42
I26
tp3066
I0
s(I49
I28
I0
I45
I26
tp3067
I0
s(I0
I5
I1
I64
I39
tp3068
I0
s(I45
I47
I1
I42
I49
tp3069
I0
s(I60
I3
I1
I57
I4
tp3070
I0
s(I15
I40
I0
I12
I37
tp3071
I0
s(I49
I28
I1
I45
I30
tp3072
I0
s(I34
I-24
I0
I30
I-27
tp3073
I0
s(I30
I-14
I0
I27
I-17
tp3074
I0
s(I30
I5
I0
I27
I1
tp3075
I0
s(I45
I39
I1
I45
I40
tp3076
I-100000
s(I64
I38
I1
I60
I40
tp3077
I0
s(I8
I-9
I0
I4
I-11
tp3078
I0
s(I30
I29
I1
I27
I31
tp3079
I0
s(I15
I-23
I0
I12
I-27
tp3080
I0
s(I30
I-30
I0
I27
I-21
tp3081
I0
s(I57
I20
I1
I53
I22
tp3082
I0
s(I57
I0
I0
I53
I9
tp3083
I0
s(I15
I20
I0
I12
I16
tp3084
I0
s(I60
I33
I0
I59
I36
tp3085
I-100000
s(I0
I2
I1
I64
I-20
tp3086
I0
s(I30
I4
I0
I27
I0
tp3087
I0
s(I0
I7
I0
I64
I4
tp3088
I0
s(I34
I3
I0
I30
I-1
tp3089
I0
s(I34
I-8
I0
I30
I-11
tp3090
I0
s(I8
I-6
I0
I4
I3
tp3091
I0
s(I30
I21
I0
I27
I17
tp3092
I0
s(I49
I-37
I0
I45
I-41
tp3093
I0
s(I4
I24
I0
I3
I23
tp3094
I-100000
s(I27
I12
I0
I23
I9
tp3095
I0
s(I64
I25
I1
I60
I27
tp3096
I0
s(I4
I34
I0
I3
I35
tp3097
I-100000
s(I23
I-9
I0
I19
I-13
tp3098
I0
s(I12
I-26
I0
I8
I-17
tp3099
I0
s(I12
I1
I0
I8
I11
tp3100
I0
s(I19
I8
I0
I15
I5
tp3101
I0
s(I4
I-34
I1
I3
I-34
tp3102
I-100000
s(I4
I-9
I1
I3
I-8
tp3103
I-100000
s(I42
I22
I0
I38
I18
tp3104
I0
s(I8
I-32
I1
I4
I-30
tp3105
I0
s(I45
I24
I1
I42
I25
tp3106
I0
s(I57
I17
I1
I53
I19
tp3107
I0
s(I34
I21
I0
I30
I17
tp3108
I0
s(I53
I-1
I0
I49
I-5
tp3109
I0
s(I34
I-4
I0
I30
I-8
tp3110
I0
s(I30
I32
I1
I27
I34
tp3111
I0
s(I8
I-35
I1
I4
I-33
tp3112
I0
s(I53
I-24
I0
I49
I-28
tp3113
I0
s(I64
I-30
I1
I60
I-28
tp3114
I0
s(I60
I-29
I0
I58
I-23
tp3115
I-100000
s(I34
I0
I0
I30
I-3
tp3116
I0
s(I23
I46
I0
I19
I44
tp3117
I0
s(I19
I-7
I0
I15
I-9
tp3118
I0
s(I34
I-29
I0
I30
I-33
tp3119
I0
s(I42
I25
I1
I38
I26
tp3120
I0
s(I4
I-37
I0
I3
I-35
tp3121
I-100000
s(I23
I17
I0
I19
I13
tp3122
I0
s(I64
I-30
I1
I60
I-29
tp3123
I0
s(I38
I38
I1
I34
I39
tp3124
I0
s(I4
I-29
I1
I3
I-29
tp3125
I-100000
s(I19
I-7
I0
I15
I3
tp3126
I0
s(I27
I-12
I1
I23
I-10
tp3127
I0
s(I60
I-13
I0
I58
I-7
tp3128
I-100000
s(I27
I47
I0
I26
I49
tp3129
I-100000
s(I49
I27
I1
I45
I28
tp3130
I0
s(I49
I29
I0
I45
I27
tp3131
I0
s(I60
I-17
I1
I57
I-15
tp3132
I0
s(I23
I-33
I0
I19
I-36
tp3133
I0
s(I64
I-14
I1
I60
I-13
tp3134
I0
s(I12
I-15
I1
I8
I-12
tp3135
I0
s(I60
I-6
I1
I57
I-5
tp3136
I100000
s(I45
I43
I0
I42
I41
tp3137
I0
s(I30
I2
I0
I27
I-2
tp3138
I0
s(I15
I46
I1
I12
I48
tp3139
I-100000
s(I12
I3
I0
I8
I0
tp3140
I0
s(I34
I-39
I1
I30
I-38
tp3141
I0
s(I0
I4
I1
I64
I-11
tp3142
I0
s(I38
I42
I1
I34
I44
tp3143
I0
s(I45
I27
I1
I45
I28
tp3144
I-100000
s(I8
I-10
I0
I4
I-12
tp3145
I0
s(I53
I2
I0
I49
I-2
tp3146
I0
s(I15
I-3
I0
I12
I-7
tp3147
I0
s(I0
I10
I0
I64
I-20
tp3148
I0
s(I30
I32
I0
I27
I41
tp3149
I0
s(I30
I35
I0
I27
I31
tp3150
I0
s(I57
I9
I0
I53
I18
tp3151
I0
s(I8
I-3
I0
I4
I-5
tp3152
I0
s(I60
I-15
I0
I59
I-17
tp3153
I-100000
s(I15
I-9
I0
I12
I-13
tp3154
I0
s(I34
I33
I0
I30
I31
tp3155
I0
s(I12
I-7
I0
I8
I-10
tp3156
I0
s(I60
I-13
I1
I57
I-11
tp3157
I0
s(I15
I-9
I1
I12
I-7
tp3158
I0
s(I8
I-10
I1
I4
I-9
tp3159
I0
s(I42
I26
I0
I38
I35
tp3160
I0
s(I4
I32
I1
I3
I32
tp3161
I-100000
s(I49
I17
I0
I45
I13
tp3162
I0
s(I12
I-18
I0
I8
I-9
tp3163
I0
s(I49
I-1
I0
I45
I-4
tp3164
I0
s(I45
I17
I0
I42
I13
tp3165
I0
s(I34
I46
I0
I32
I52
tp3166
I-100000
s(I57
I-9
I0
I53
I0
tp3167
I0
s(I53
I30
I0
I49
I28
tp3168
I0
s(I64
I18
I1
I60
I20
tp3169
I0
s(I8
I-12
I0
I4
I-14
tp3170
I0
s(I38
I5
I0
I34
I2
tp3171
I0
s(I42
I3
I0
I38
I0
tp3172
I0
s(I27
I-29
I0
I23
I-31
tp3173
I0
s(I15
I-3
I1
I12
I-1
tp3174
I0
s(I57
I3
I0
I53
I12
tp3175
I0
s(I38
I-16
I0
I34
I-20
tp3176
I0
s(I57
I37
I1
I53
I39
tp3177
I0
s(I57
I-14
I0
I53
I-5
tp3178
I0
s(I53
I19
I1
I53
I20
tp3179
I-100000
s(I8
I-20
I1
I4
I-18
tp3180
I0
s(I60
I-1
I0
I58
I4
tp3181
I-100000
s(I38
I34
I1
I34
I36
tp3182
I0
s(I49
I17
I0
I48
I20
tp3183
I-100000
s(I12
I-10
I1
I8
I-9
tp3184
I0
s(I12
I-15
I0
I8
I-17
tp3185
I0
s(I60
I33
I1
I57
I34
tp3186
I100000
s(I53
I17
I0
I49
I26
tp3187
I0
s(I8
I8
I0
I4
I5
tp3188
I0
s(I19
I-11
I0
I15
I-2
tp3189
I0
s(I53
I18
I0
I49
I16
tp3190
I0
s(I8
I-31
I0
I4
I-22
tp3191
I0
s(I49
I0
I0
I45
I-4
tp3192
I0
s(I49
I29
I0
I48
I32
tp3193
I-100000
s(I19
I42
I0
I15
I52
tp3194
I-100000
s(I23
I49
I0
I21
I52
tp3195
I-100000
s(I4
I9
I0
I0
I5
tp3196
I0
s(I23
I13
I0
I19
I9
tp3197
I0
s(I0
I10
I0
I64
I8
tp3198
I0
s(I8
I-5
I0
I4
I5
tp3199
I0
s(I8
I-39
I0
I4
I-30
tp3200
I0
s(I38
I19
I0
I34
I29
tp3201
I0
s(I15
I-19
I1
I12
I-18
tp3202
I0
s(I45
I8
I0
I42
I5
tp3203
I0
s(I4
I-29
I0
I3
I-27
tp3204
I-100000
s(I15
I38
I1
I12
I40
tp3205
I0
s(I64
I1
I0
I61
I9
tp3206
I-100000
s(I30
I36
I0
I28
I40
tp3207
I-100000
s(I60
I-26
I0
I57
I-19
tp3208
I-100000
s(I15
I0
I0
I12
I-3
tp3209
I0
s(I23
I33
I0
I19
I42
tp3210
I0
s(I60
I26
I0
I57
I34
tp3211
I100000
s(I27
I44
I0
I23
I40
tp3212
I0
s(I4
I5
I0
I0
I2
tp3213
I0
s(I42
I24
I0
I38
I20
tp3214
I0
s(I27
I-11
I0
I24
I-13
tp3215
I-100000
s(I0
I3
I1
I64
I37
tp3216
I0
s(I15
I-11
I0
I12
I-15
tp3217
I0
s(I19
I-19
I1
I15
I-16
tp3218
I0
s(I64
I-17
I1
I60
I-15
tp3219
I0
s(I49
I-24
I0
I45
I-28
tp3220
I0
s(I19
I44
I0
I17
I48
tp3221
I-100000
s(I12
I5
I0
I8
I2
tp3222
I0
s(I4
I-32
I0
I3
I-33
tp3223
I-100000
s(I15
I46
I0
I14
I48
tp3224
I-100000
s(I53
I37
I1
I49
I40
tp3225
I-100000
s(I30
I10
I0
I27
I7
tp3226
I0
s(I0
I4
I1
I64
I14
tp3227
I0
s(I38
I17
I0
I34
I26
tp3228
I0
s(I57
I21
I1
I53
I23
tp3229
I0
s(I45
I15
I0
I42
I12
tp3230
I0
s(I49
I11
I0
I45
I7
tp3231
I0
s(I15
I-12
I0
I12
I-16
tp3232
I0
s(I53
I-4
I0
I49
I-6
tp3233
I0
s(I27
I-8
I0
I23
I-11
tp3234
I0
s(I19
I-24
I0
I19
I-25
tp3235
I-100000
s(I60
I21
I0
I57
I31
tp3236
I0
s(I57
I23
I0
I53
I33
tp3237
I0
s(I0
I6
I1
I64
I-4
tp3238
I0
s(I45
I-37
I0
I42
I-41
tp3239
I-100000
s(I38
I0
I0
I34
I-4
tp3240
I0
s(I4
I-18
I0
I3
I-16
tp3241
I-100000
s(I0
I5
I1
I64
I-10
tp3242
I0
s(I19
I2
I0
I15
I-2
tp3243
I0
s(I42
I42
I0
I41
I44
tp3244
I-100000
s(I57
I-18
I0
I53
I-21
tp3245
I0
s(I4
I25
I1
I3
I25
tp3246
I-100000
s(I0
I4
I1
I64
I-2
tp3247
I0
s(I38
I3
I0
I34
I0
tp3248
I0
s(I15
I-38
I1
I12
I-37
tp3249
I0
s(I15
I-25
I0
I12
I-16
tp3250
I0
s(I27
I18
I0
I23
I14
tp3251
I0
s(I4
I-26
I0
I3
I-26
tp3252
I-100000
s(I19
I-15
I0
I15
I-19
tp3253
I0
s(I60
I-9
I0
I57
I-12
tp3254
I0
s(I60
I2
I0
I57
I9
tp3255
I-100000
s(I45
I3
I0
I42
I-1
tp3256
I0
s(I45
I-13
I0
I42
I-16
tp3257
I0
s(I27
I-25
I0
I23
I-28
tp3258
I0
s(I4
I-12
I0
I3
I-14
tp3259
I-100000
s(I64
I29
I1
I60
I30
tp3260
I0
s(I45
I15
I0
I45
I16
tp3261
I-100000
s(I15
I50
I1
I12
I52
tp3262
I-100000
s(I19
I-13
I0
I15
I-4
tp3263
I0
s(I23
I12
I0
I19
I8
tp3264
I0
s(I0
I3
I1
I64
I-19
tp3265
I0
s(I30
I22
I0
I27
I18
tp3266
I0
s(I49
I30
I1
I45
I32
tp3267
I0
s(I27
I-1
I0
I23
I-5
tp3268
I0
s(I53
I19
I0
I49
I28
tp3269
I0
s(I0
I8
I0
I64
I30
tp3270
I0
s(I45
I32
I0
I43
I36
tp3271
I-100000
s(I45
I43
I1
I42
I44
tp3272
I0
s(I45
I48
I0
I43
I52
tp3273
I-100000
s(I8
I1
I1
I4
I3
tp3274
I0
s(I4
I2
I1
I0
I5
tp3275
I0
s(I0
I0
I0
I64
I10
tp3276
I0
s(I64
I-4
I0
I61
I4
tp3277
I-100000
s(I42
I21
I0
I38
I31
tp3278
I0
s(I45
I-7
I0
I42
I-10
tp3279
I0
s(I19
I-27
I1
I15
I-26
tp3280
I0
s(I27
I-6
I0
I23
I-10
tp3281
I0
s(I53
I5
I0
I49
I3
tp3282
I0
s(I45
I39
I1
I42
I40
tp3283
I0
s(I60
I20
I1
I57
I22
tp3284
I0
s(I60
I-8
I1
I57
I-7
tp3285
I100000
s(I23
I-28
I1
I23
I-29
tp3286
I-100000
s(I38
I-11
I0
I34
I-15
tp3287
I0
s(I19
I-38
I0
I15
I-42
tp3288
I0
s(I64
I13
I1
I60
I15
tp3289
I0
s(I12
I-12
I0
I8
I-2
tp3290
I0
s(I34
I-31
I1
I30
I-30
tp3291
I0
s(I27
I8
I0
I23
I4
tp3292
I0
s(I15
I3
I0
I12
I1
tp3293
I0
s(I19
I4
I0
I15
I0
tp3294
I0
s(I8
I-21
I1
I4
I-18
tp3295
I0
s(I34
I28
I1
I30
I29
tp3296
I0
s(I53
I-14
I0
I49
I-16
tp3297
I0
s(I60
I-5
I0
I57
I1
tp3298
I-100000
s(I42
I28
I0
I38
I26
tp3299
I0
s(I60
I-26
I0
I57
I-30
tp3300
I0
s(I15
I-26
I0
I13
I-29
tp3301
I-100000
s(I34
I43
I0
I30
I40
tp3302
I0
s(I15
I6
I0
I12
I2
tp3303
I0
s(I12
I-20
I1
I8
I-19
tp3304
I0
s(I0
I6
I1
I64
I16
tp3305
I0
s(I53
I-29
I0
I49
I-33
tp3306
I0
s(I19
I44
I1
I15
I46
tp3307
I0
s(I12
I-20
I0
I8
I-22
tp3308
I0
s(I45
I46
I0
I42
I44
tp3309
I0
s(I49
I31
I0
I45
I29
tp3310
I0
s(I23
I-29
I0
I19
I-32
tp3311
I0
s(I23
I46
I0
I19
I42
tp3312
I0
s(I45
I41
I0
I42
I37
tp3313
I0
s(I49
I37
I0
I45
I33
tp3314
I0
s(I60
I18
I0
I57
I27
tp3315
I0
s(I19
I48
I1
I15
I50
tp3316
I0
s(I30
I2
I0
I27
I-1
tp3317
I0
s(I42
I17
I0
I38
I26
tp3318
I0
s(I42
I23
I0
I38
I21
tp3319
I0
s(I19
I-32
I0
I15
I-36
tp3320
I0
s(I19
I36
I0
I17
I40
tp3321
I-100000
s(I42
I14
I0
I38
I10
tp3322
I0
s(I64
I12
I1
I60
I14
tp3323
I0
s(I27
I-7
I0
I24
I-9
tp3324
I-100000
s(I23
I4
I0
I19
I0
tp3325
I0
s(I60
I24
I0
I57
I33
tp3326
I0
s(I15
I-12
I0
I12
I-3
tp3327
I0
s(I23
I9
I0
I19
I6
tp3328
I0
s(I4
I-7
I0
I3
I-8
tp3329
I-100000
s(I4
I-28
I0
I3
I-26
tp3330
I-100000
s(I38
I-20
I0
I34
I-24
tp3331
I0
s(I49
I26
I1
I45
I28
tp3332
I0
s(I34
I-23
I0
I32
I-25
tp3333
I-100000
s(I15
I-5
I0
I12
I-9
tp3334
I0
s(I45
I19
I0
I43
I24
tp3335
I-100000
s(I49
I37
I1
I45
I39
tp3336
I0
s(I4
I-2
I1
I3
I-1
tp3337
I-100000
s(I45
I9
I0
I42
I6
tp3338
I0
s(I45
I35
I0
I45
I36
tp3339
I-100000
s(I45
I45
I0
I42
I52
tp3340
I-100000
s(I27
I50
I1
I23
I52
tp3341
I-100000
s(I19
I-7
I0
I15
I2
tp3342
I0
s(I15
I-25
I1
I12
I-24
tp3343
I0
s(I60
I6
I0
I57
I14
tp3344
I100000
s(I19
I-35
I1
I15
I-34
tp3345
I0
s(I19
I24
I0
I15
I21
tp3346
I0
s(I60
I11
I0
I57
I20
tp3347
I0
s(I19
I-13
I0
I15
I-15
tp3348
I0
s(I64
I-5
I0
I62
I0
tp3349
I-100000
s(I0
I7
I0
I64
I12
tp3350
I0
s(I30
I46
I0
I28
I52
tp3351
I-100000
s.