(lp0
(I129
I12
I1
tp1
a(I118
I24
I1
tp2
a(I106
I36
I1
tp3
a(I95
I48
I1
tp4
a(I84
I60
I1
tp5
a(I73
I72
I1
tp6
a(I118
I3
I1
tp7
a(I106
I13
I1
tp8
a(I95
I25
I1
tp9
a(I84
I37
I1
tp10
a(I73
I49
I1
tp11
a(I61
I61
I1
tp12
a(I50
I73
I1
tp13
a(I84
I32
I1
tp14
a(I73
I41
I1
tp15
a(I61
I53
I1
tp16
a(I50
I65
I1
tp17
a(I95
I20
I1
tp18
a(I84
I29
I1
tp19
a(I61
I48
I1
tp20
a(I50
I57
I1
tp21
a(I39
I69
I1
tp22
a(I95
I43
I1
tp23
a(I84
I52
I1
tp24
a(I73
I64
I1
tp25
a(I73
I59
I1
tp26
a(I61
I69
I1
tp27
a(I84
I55
I1
tp28
a(I106
I31
I1
tp29
a(I95
I40
I1
tp30
a(I50
I37
I1
tp31
a(I39
I46
I1
tp32
a(I28
I58
I1
tp33
a(I16
I70
I1
tp34
a(I84
I47
I1
tp35
a(I73
I57
I1
tp36
a(I106
I-8
I1
tp37
a(I95
I2
I1
tp38
a(I84
I14
I1
tp39
a(I73
I26
I1
tp40
a(I61
I38
I1
tp41
a(I50
I50
I1
tp42
a(I39
I62
I1
tp43
a(I95
I-19
I1
tp44
a(I84
I-10
I1
tp45
a(I73
I2
I1
tp46
a(I61
I14
I1
tp47
a(I50
I27
I1
tp48
a(I39
I39
I1
tp49
a(I28
I51
I1
tp50
a(I16
I63
I1
tp51
a(I61
I64
I1
tp52
a(I73
I36
I1
tp53
a(I61
I45
I1
tp54
a(I39
I64
I1
tp55
a(I73
I21
I1
tp56
a(I61
I30
I1
tp57
a(I50
I42
I1
tp58
a(I39
I54
I1
tp59
a(I28
I66
I1
tp60
a(I73
I-3
I1
tp61
a(I61
I7
I1
tp62
a(I50
I19
I1
tp63
a(I39
I31
I1
tp64
a(I28
I43
I1
tp65
a(I16
I55
I1
tp66
a(I50
I52
I1
tp67
a(I50
I45
I1
tp68
a(I28
I61
I1
tp69
a(I73
I44
I1
tp70
a(I50
I60
I1
tp71
a(I61
I25
I1
tp72
a(I50
I34
I1
tp73
a(I50
I14
I1
tp74
a(I39
I23
I1
tp75
a(I28
I35
I1
tp76
a(I16
I47
I1
tp77
a(I39
I26
I1
tp78
a(I84
I9
I1
tp79
a(I73
I18
I1
tp80
a(I39
I41
I1
tp81
a(I28
I50
I1
tp82
a(I16
I62
I1
tp83
a(I16
I57
I1
tp84
a(I39
I2
I1
tp85
a(I28
I12
I1
tp86
a(I16
I24
I1
tp87
a(I61
I9
I1
tp88
a(I28
I14
I1
tp89
a(I50
I-2
I1
tp90
a(I39
I7
I1
tp91
a(I28
I19
I1
tp92
a(I16
I32
I1
tp93
a(I61
I33
I1
tp94
a(I39
I49
I1
tp95
a(I16
I42
I1
tp96
a(I28
I38
I1
tp97
a(I16
I26
I1
tp98
a(I39
I-13
I1
tp99
a(I28
I-4
I1
tp100
a(I16
I8
I1
tp101
a(I5
I20
I1
tp102
a(I28
I-9
I1
tp103
a(I16
I0
I1
tp104
a(I5
I12
I1
tp105
a(I129
I24
I1
tp106
a(I84
I-30
I1
tp107
a(I73
I-21
I1
tp108
a(I61
I-9
I1
tp109
a(I50
I3
I1
tp110
a(I39
I15
I1
tp111
a(I28
I27
I1
tp112
a(I16
I39
I1
tp113
a(I61
I-14
I1
tp114
a(I50
I-5
I1
tp115
a(I50
I21
I1
tp116
a(I16
I50
I1
tp117
a(I28
I53
I1
tp118
a(I61
I56
I1
tp119
a(I50
I-25
I1
tp120
a(I39
I-16
I1
tp121
a(I16
I3
I1
tp122
a(I5
I15
I1
tp123
a(I129
I4
I1
tp124
a(I118
I13
I1
tp125
a(I106
I25
I1
tp126
a(I95
I37
I1
tp127
a(I84
I49
I1
tp128
a(I73
I62
I1
tp129
a(I39
I33
I1
tp130
a(I39
I57
I1
tp131
a(I73
I-42
I1
tp132
a(I61
I-32
I1
tp133
a(I50
I-20
I1
tp134
a(I39
I-8
I1
tp135
a(I28
I4
I1
tp136
a(I16
I16
I1
tp137
a(I16
I-20
I1
tp138
a(I28
I30
I1
tp139
a(I39
I-36
I1
tp140
a(I28
I-27
I1
tp141
a(I16
I-15
I1
tp142
a(I16
I19
I1
tp143
a(I28
I-48
I1
tp144
a(I16
I-38
I1
tp145
a(I106
I20
I1
tp146
a(I95
I29
I1
tp147
a(I84
I42
I1
tp148
a(I73
I54
I1
tp149
a(I61
I66
I1
tp150
a(I28
I-24
I1
tp151
a(I50
I49
I1
tp152
a(I39
I59
I1
tp153
a(I28
I71
I1
tp154
a(I84
I36
I1
tp155
a(I73
I46
I1
tp156
a(I61
I58
I1
tp157
a(I50
I70
I1
tp158
a(I73
I25
I1
tp159
a(I61
I34
I1
tp160
a(I50
I47
I1
tp161
a(I50
I41
I1
tp162
a(I39
I51
I1
tp163
a(I28
I63
I1
tp164
a(I50
I23
I1
tp165
a(I39
I35
I1
tp166
a(I28
I47
I1
tp167
a(I16
I59
I1
tp168
a(I73
I48
I1
tp169
a(I39
I10
I1
tp170
a(I95
I9
I1
tp171
a(I84
I18
I1
tp172
a(I73
I30
I1
tp173
a(I61
I42
I1
tp174
a(I50
I54
I1
tp175
a(I39
I67
I1
tp176
a(I84
I-2
I1
tp177
a(I73
I7
I1
tp178
a(I61
I19
I1
tp179
a(I50
I31
I1
tp180
a(I39
I43
I1
tp181
a(I28
I55
I1
tp182
a(I16
I67
I1
tp183
a(I73
I-14
I1
tp184
a(I61
I-4
I1
tp185
a(I50
I8
I1
tp186
a(I39
I20
I1
tp187
a(I28
I32
I1
tp188
a(I16
I44
I1
tp189
a(I39
I30
I1
tp190
a(I28
I39
I1
tp191
a(I16
I52
I1
tp192
a(I61
I37
I1
tp193
a(I39
I53
I1
tp194
a(I28
I46
I1
tp195
a(I39
I12
I1
tp196
a(I28
I24
I1
tp197
a(I16
I36
I1
tp198
a(I50
I26
I1
tp199
a(I28
I42
I1
tp200
a(I28
I3
I1
tp201
a(I16
I13
I1
tp202
a(I5
I25
I1
tp203
a(I61
I-25
I1
tp204
a(I50
I-16
I1
tp205
a(I39
I-3
I1
tp206
a(I28
I9
I1
tp207
a(I16
I21
I1
tp208
a(I16
I31
I1
tp209
a(I5
I17
I1
tp210
a(I39
I61
I1
tp211
a(I16
I54
I1
tp212
a(I39
I38
I1
tp213
a(I39
I-9
I1
tp214
a(I28
I1
I1
tp215
a(I16
I28
I1
tp216
a(I16
I46
I1
tp217
a(I129
I8
I1
tp218
a(I118
I18
I1
tp219
a(I106
I30
I1
tp220
a(I95
I42
I1
tp221
a(I84
I54
I1
tp222
a(I73
I66
I1
tp223
a(I50
I-36
I1
tp224
a(I39
I-27
I1
tp225
a(I28
I-15
I1
tp226
a(I16
I-3
I1
tp227
a(I5
I9
I1
tp228
a(I129
I22
I1
tp229
a(I28
I-20
I1
tp230
a(I16
I-11
I1
tp231
a(I5
I2
I1
tp232
a(I129
I14
I1
tp233
a(I118
I26
I1
tp234
a(I39
I-47
I1
tp235
a(I28
I-38
I1
tp236
a(I16
I-26
I1
tp237
a(I73
I38
I1
tp238
a(I61
I47
I1
tp239
a(I50
I59
I1
tp240
a(I39
I71
I1
tp241
a(I84
I26
I1
tp242
a(I73
I35
I1
tp243
a(I28
I52
I1
tp244
a(I16
I64
I1
tp245
a(I73
I14
I1
tp246
a(I61
I24
I1
tp247
a(I50
I36
I1
tp248
a(I39
I48
I1
tp249
a(I28
I60
I1
tp250
a(I16
I72
I1
tp251
a(I28
I31
I1
tp252
a(I16
I41
I1
tp253
a(I50
I51
I1
tp254
a(I39
I63
I1
tp255
a(I73
I61
I1
tp256
a(I61
I70
I1
tp257
a(I84
I46
I1
tp258
a(I73
I58
I1
tp259
a(I16
I-31
I1
tp260
a(I61
I26
I1
tp261
a(I61
I50
I1
tp262
a(I61
I3
I1
tp263
a(I50
I12
I1
tp264
a(I39
I24
I1
tp265
a(I28
I37
I1
tp266
a(I16
I49
I1
tp267
a(I50
I38
I1
tp268
a(I73
I53
I1
tp269
a(I61
I62
I1
tp270
a(I39
I40
I1
tp271
a(I16
I43
I1
tp272
a(I16
I56
I1
tp273
a(I39
I58
I1
tp274
a(I28
I67
I1
tp275
a(I16
I20
I1
tp276
a(I39
I27
I1
tp277
a(I39
I19
I1
tp278
a(I28
I29
I1
tp279
a(I28
I16
I1
tp280
a(I16
I25
I1
tp281
a(I28
I8
I1
tp282
a(I16
I17
I1
tp283
a(I129
I18
I1
tp284
a(I16
I5
I1
tp285
a(I5
I14
I1
tp286
a(I50
I15
I1
tp287
a(I5
I24
I1
tp288
a(I50
I-8
I1
tp289
a(I39
I1
I1
tp290
a(I28
I13
I1
tp291
a(I5
I6
I1
tp292
a(I39
I4
I1
tp293
a(I129
I13
I1
tp294
a(I118
I22
I1
tp295
a(I106
I34
I1
tp296
a(I95
I47
I1
tp297
a(I84
I59
I1
tp298
a(I73
I71
I1
tp299
a(I118
I2
I1
tp300
a(I106
I11
I1
tp301
a(I95
I23
I1
tp302
a(I84
I35
I1
tp303
a(I73
I47
I1
tp304
a(I61
I59
I1
tp305
a(I50
I71
I1
tp306
a(I95
I41
I1
tp307
a(I84
I51
I1
tp308
a(I73
I63
I1
tp309
a(I84
I30
I1
tp310
a(I73
I39
I1
tp311
a(I61
I52
I1
tp312
a(I50
I64
I1
tp313
a(I84
I53
I1
tp314
a(I28
I-7
I1
tp315
a(I16
I2
I1
tp316
a(I16
I-19
I1
tp317
a(I39
I-19
I1
tp318
a(I28
I-10
I1
tp319
a(I50
I58
I1
tp320
a(I39
I68
I1
tp321
a(I61
I67
I1
tp322
a(I73
I42
I1
tp323
a(I39
I47
I1
tp324
a(I28
I57
I1
tp325
a(I16
I69
I1
tp326
a(I61
I46
I1
tp327
a(I50
I56
I1
tp328
a(I61
I31
I1
tp329
a(I50
I40
I1
tp330
a(I39
I52
I1
tp331
a(I28
I64
I1
tp332
a(I50
I35
I1
tp333
a(I39
I44
I1
tp334
a(I73
I19
I1
tp335
a(I61
I28
I1
tp336
a(I28
I59
I1
tp337
a(I16
I48
I1
tp338
a(I50
I20
I1
tp339
a(I39
I29
I1
tp340
a(I28
I41
I1
tp341
a(I16
I53
I1
tp342
a(I28
I36
I1
tp343
a(I16
I45
I1
tp344
a(I61
I8
I1
tp345
a(I50
I17
I1
tp346
a(I16
I61
I1
tp347
a(I5
I13
I1
tp348
a(I129
I23
I1
tp349
a(I16
I1
I1
tp350
a(I5
I11
I1
tp351
a(I50
I-4
I1
tp352
a(I39
I6
I1
tp353
a(I28
I18
I1
tp354
a(I16
I30
I1
tp355
a(I129
I2
I1
tp356
a(I118
I12
I1
tp357
a(I106
I24
I1
tp358
a(I95
I36
I1
tp359
a(I84
I48
I1
tp360
a(I73
I60
I1
tp361
a(I61
I72
I1
tp362
a(I95
I31
I1
tp363
a(I84
I40
I1
tp364
a(I73
I52
I1
tp365
a(I50
I68
I1
tp366
a(I16
I40
I1
tp367
a(I73
I55
I1
tp368
a(I39
I8
I1
tp369
a(I84
I19
I1
tp370
a(I73
I29
I1
tp371
a(I61
I41
I1
tp372
a(I50
I53
I1
tp373
a(I39
I65
I1
tp374
a(I28
I-3
I1
tp375
a(I16
I7
I1
tp376
a(I5
I19
I1
tp377
a(I16
I-14
I1
tp378
a(I61
I43
I1
tp379
a(I39
I60
I1
tp380
a(I28
I69
I1
tp381
a(I84
I43
I1
tp382
a(I50
I32
I1
tp383
a(I28
I48
I1
tp384
a(I16
I58
I1
tp385
a(I73
I31
I1
tp386
a(I61
I36
I1
tp387
a(I16
I29
I1
tp388
a(I50
I63
I1
tp389
a(I39
I72
I1
tp390
a(I50
I48
I1
tp391
a(I16
I73
I1
tp392
a(I50
I24
I1
tp393
a(I39
I34
I1
tp394
a(I39
I21
I1
tp395
a(I16
I37
I1
tp396
a(I73
I8
I1
tp397
a(I61
I17
I1
tp398
a(I50
I29
I1
tp399
a(I61
I20
I1
tp400
a(I39
I36
I1
tp401
a(I28
I25
I1
tp402
a(I16
I34
I1
tp403
a(I16
I14
I1
tp404
a(I5
I23
I1
tp405
a(I39
I13
I1
tp406
a(I28
I22
I1
tp407
a(I28
I10
I1
tp408
a(I5
I3
I1
tp409
a(I5
I7
I1
tp410
a(I129
I17
I1
tp411
a(I50
I9
I1
tp412
a(I39
I18
I1
tp413
a(I5
I18
I1
tp414
a(I129
I7
I1
tp415
a(I118
I16
I1
tp416
a(I106
I28
I1
tp417
a(I73
I56
I1
tp418
a(I61
I-3
I1
tp419
a(I50
I6
I1
tp420
a(I28
I2
I1
tp421
a(I16
I11
I1
tp422
a(I16
I-2
I1
tp423
a(I5
I8
I1
tp424
a(I129
I20
I1
tp425
a(I39
I-2
I1
tp426
a(I28
I7
I1
tp427
a(I39
I25
I1
tp428
a(I28
I54
I1
tp429
a(I16
I66
I1
tp430
a(I16
I60
I1
tp431
a(I95
I35
I1
tp432
a(I84
I44
I1
tp433
a(I61
I63
I1
tp434
a(I73
I51
I1
tp435
a(I28
I-14
I1
tp436
a(I16
I-4
I1
tp437
a(I129
I15
I1
tp438
a(I16
I-25
I1
tp439
a(I84
I8
I1
tp440
a(I84
I41
I1
tp441
a(I61
I60
I1
tp442
a(I50
I46
I1
tp443
a(I61
I40
I1
tp444
a(I50
I30
I1
tp445
a(I16
I35
I1
tp446
a(I16
I18
I1
tp447
a(I84
I24
I1
tp448
a(I73
I33
I1
tp449
a(I50
I13
I1
tp450
a(I129
I16
I1
tp451
a(I39
I56
I1
tp452
a(I28
I11
I1
tp453
a(I28
I6
I1
tp454
a(I28
I45
I1
tp455
a(I73
I13
I1
tp456
a(I61
I22
I1
tp457
a(I16
I-5
I1
tp458
a(I5
I4
I1
tp459
a(I61
I1
I1
tp460
a(I50
I11
I1
tp461
a(I129
I11
I1
tp462
a(I118
I21
I1
tp463
a(I106
I33
I1
tp464
a(I95
I45
I1
tp465
a(I84
I57
I1
tp466
a(I73
I69
I1
tp467
a(I84
I28
I1
tp468
a(I50
I33
I1
tp469
a(I16
I38
I1
tp470
a(I39
I45
I1
tp471
a(I73
I40
I1
tp472
a(I28
I34
I1
tp473
a(I50
I-10
I1
tp474
a(I39
I-1
I1
tp475
a(I39
I-21
I1
tp476
a(I28
I-12
I1
tp477
a(I73
I17
I1
tp478
a(I61
I27
I1
tp479
a(I50
I39
I1
tp480
a(I61
I73
I1
tp481
a(I28
I-32
I1
tp482
a(I16
I-23
I1
tp483
a(I61
I29
I1
tp484
a(I16
I23
I1
tp485
a(I39
I22
I1
tp486
a(I61
I6
I1
tp487
a(I129
I0
I1
tp488
a(I118
I10
I1
tp489
a(I106
I22
I1
tp490
a(I95
I34
I1
tp491
a(I118
I11
I1
tp492
a(I95
I30
I1
tp493
a(I61
I35
I1
tp494
a(I39
I-17
I1
tp495
a(I28
I-28
I1
tp496
a(I16
I-18
I1
tp497
a(I84
I38
I1
tp498
a(I73
I50
I1
tp499
a(I73
I45
I1
tp500
a(I61
I54
I1
tp501
a(I50
I66
I1
tp502
a(I61
I57
I1
tp503
a(I129
I21
I1
tp504
a(I16
I-39
I1
tp505
a(I50
I61
I1
tp506
a(I28
I23
I1
tp507
a(I16
I33
I1
tp508
a(I50
I43
I1
tp509
a(I39
I55
I1
tp510
a(I16
I12
I1
tp511
a(I5
I21
I1
tp512
a(I28
I62
I1
tp513
a(I16
I71
I1
tp514
a(I50
I18
I1
tp515
a(I39
I50
I1
tp516
a(I5
I1
I1
tp517
a(I129
I10
I1
tp518
a(I73
I12
I1
tp519
a(I39
I17
I1
tp520
a(I28
I44
I1
tp521
a(I106
I23
I1
tp522
a(I16
I51
I1
tp523
a(I5
I16
I1
tp524
a(I129
I26
I1
tp525
a(I95
I19
I1
tp526
a(I28
I-1
I1
tp527
a(I16
I-12
I1
tp528
a(I39
I5
I1
tp529
a(I28
I17
I1
tp530
a(I28
I-5
I1
tp531
a.